
Test.elf:     file format elf32-littlenios2
Test.elf
architecture: nios2, flags 0x00000112:
EXEC_P, HAS_SYMS, D_PAGED
start address 0x00000194

Program Header:
    LOAD off    0x00001020 vaddr 0x08200020 paddr 0x00000000 align 2**12
         filesz 0x00000194 memsz 0x00000194 flags r-x
    LOAD off    0x00002194 vaddr 0x00000194 paddr 0x00000194 align 2**12
         filesz 0x00040b70 memsz 0x00040b70 flags r-x
    LOAD off    0x00042d04 vaddr 0x00040d04 paddr 0x00042810 align 2**12
         filesz 0x00001b0c memsz 0x00001b0c flags rw-
    LOAD off    0x0004531c vaddr 0x0004431c paddr 0x0004431c align 2**12
         filesz 0x00000000 memsz 0x04000424 flags rw-
    LOAD off    0x00045000 vaddr 0x08200000 paddr 0x08200000 align 2**12
         filesz 0x00000020 memsz 0x00000020 flags r-x

Sections:
Idx Name          Size      VMA       LMA       File off  Algn
  0 .entry        00000020  08200000  08200000  00045000  2**5
                  CONTENTS, ALLOC, LOAD, READONLY, CODE
  1 .exceptions   00000194  08200020  00000000  00001020  2**2
                  CONTENTS, ALLOC, LOAD, READONLY, CODE
  2 .text         0003e250  00000194  00000194  00002194  2**2
                  CONTENTS, ALLOC, LOAD, READONLY, CODE
  3 .rodata       00002920  0003e3e4  0003e3e4  000403e4  2**2
                  CONTENTS, ALLOC, LOAD, READONLY, DATA
  4 .rwdata       00001b0c  00040d04  00042810  00042d04  2**2
                  CONTENTS, ALLOC, LOAD, DATA, SMALL_DATA
  5 .bss          040006fe  0004431c  0004431c  0004531c  2**2
                  ALLOC, SMALL_DATA
  6 .comment      00000023  00000000  00000000  00045020  2**0
                  CONTENTS, READONLY
  7 .debug_aranges 000017f8  00000000  00000000  00045048  2**3
                  CONTENTS, READONLY, DEBUGGING
  8 .debug_pubnames 000028e9  00000000  00000000  00046840  2**0
                  CONTENTS, READONLY, DEBUGGING
  9 .debug_info   00077e35  00000000  00000000  00049129  2**0
                  CONTENTS, READONLY, DEBUGGING
 10 .debug_abbrev 0001070a  00000000  00000000  000c0f5e  2**0
                  CONTENTS, READONLY, DEBUGGING
 11 .debug_line   00031f2e  00000000  00000000  000d1668  2**0
                  CONTENTS, READONLY, DEBUGGING
 12 .debug_frame  00004644  00000000  00000000  00103598  2**2
                  CONTENTS, READONLY, DEBUGGING
 13 .debug_str    00004abc  00000000  00000000  00107bdc  2**0
                  CONTENTS, READONLY, DEBUGGING
 14 .debug_loc    000166b8  00000000  00000000  0010c698  2**0
                  CONTENTS, READONLY, DEBUGGING
 15 .debug_alt_sim_info 00000020  00000000  00000000  00122d50  2**2
                  CONTENTS, READONLY, DEBUGGING
 16 .debug_ranges 00000c08  00000000  00000000  00122d70  2**3
                  CONTENTS, READONLY, DEBUGGING
 17 .thread_model 00000003  00000000  00000000  0012a3a4  2**0
                  CONTENTS, READONLY
 18 .cpu          00000003  00000000  00000000  0012a3a7  2**0
                  CONTENTS, READONLY
 19 .qsys         00000001  00000000  00000000  0012a3aa  2**0
                  CONTENTS, READONLY
 20 .simulation_enabled 00000001  00000000  00000000  0012a3ab  2**0
                  CONTENTS, READONLY
 21 .sysid_hash   00000004  00000000  00000000  0012a3ac  2**0
                  CONTENTS, READONLY
 22 .sysid_base   00000004  00000000  00000000  0012a3b0  2**0
                  CONTENTS, READONLY
 23 .sysid_time   00000004  00000000  00000000  0012a3b4  2**0
                  CONTENTS, READONLY
 24 .stderr_dev   00000009  00000000  00000000  0012a3b8  2**0
                  CONTENTS, READONLY
 25 .stdin_dev    00000009  00000000  00000000  0012a3c1  2**0
                  CONTENTS, READONLY
 26 .stdout_dev   00000009  00000000  00000000  0012a3ca  2**0
                  CONTENTS, READONLY
 27 .sopc_system_name 0000000c  00000000  00000000  0012a3d3  2**0
                  CONTENTS, READONLY
 28 .quartus_project_dir 0000001e  00000000  00000000  0012a3df  2**0
                  CONTENTS, READONLY
 29 .jdi          00004f0f  00000000  00000000  0012a3fd  2**0
                  CONTENTS, READONLY
 30 .sopcinfo     0004d722  00000000  00000000  0012f30c  2**0
                  CONTENTS, READONLY
SYMBOL TABLE:
08200000 l    d  .entry	00000000 .entry
08200020 l    d  .exceptions	00000000 .exceptions
00000194 l    d  .text	00000000 .text
0003e3e4 l    d  .rodata	00000000 .rodata
00040d04 l    d  .rwdata	00000000 .rwdata
0004431c l    d  .bss	00000000 .bss
00000000 l    d  .comment	00000000 .comment
00000000 l    d  .debug_aranges	00000000 .debug_aranges
00000000 l    d  .debug_pubnames	00000000 .debug_pubnames
00000000 l    d  .debug_info	00000000 .debug_info
00000000 l    d  .debug_abbrev	00000000 .debug_abbrev
00000000 l    d  .debug_line	00000000 .debug_line
00000000 l    d  .debug_frame	00000000 .debug_frame
00000000 l    d  .debug_str	00000000 .debug_str
00000000 l    d  .debug_loc	00000000 .debug_loc
00000000 l    d  .debug_alt_sim_info	00000000 .debug_alt_sim_info
00000000 l    d  .debug_ranges	00000000 .debug_ranges
000001cc l       .text	00000000 alt_after_alt_main
00000000 l    df *ABS*	00000000 alt_irq_handler.c
00000000 l    df *ABS*	00000000 bmp_extract.c
00000000 l    df *ABS*	00000000 jpeg_encoding.c
00000000 l    df *ABS*	00000000 cdjpeg.c
00000000 l    df *ABS*	00000000 jaricom.c
00000000 l    df *ABS*	00000000 jcapimin.c
00000000 l    df *ABS*	00000000 jcapistd.c
00000000 l    df *ABS*	00000000 jcarith.c
0000167c l     F .text	000000b8 emit_byte
00001734 l     F .text	00000364 finish_pass
00001a98 l     F .text	0000045c arith_encode
00001ef4 l     F .text	000001a4 emit_restart
00002098 l     F .text	00000480 encode_mcu_DC_first
00002518 l     F .text	000004fc encode_mcu_AC_first
00002a14 l     F .text	00000138 encode_mcu_DC_refine
00002b4c l     F .text	000004a4 encode_mcu_AC_refine
00002ff0 l     F .text	00000810 encode_mcu
00003800 l     F .text	000003dc start_pass
00000000 l    df *ABS*	00000000 jccoefct.c
00003cb4 l     F .text	000000a0 start_iMCU_row
00003d54 l     F .text	00000174 start_pass_coef
00003ec8 l     F .text	00000434 compress_data
000042fc l     F .text	00000414 compress_first_pass
00004710 l     F .text	000002f4 compress_output
00000000 l    df *ABS*	00000000 jccolor.c
00004bdc l     F .text	000001d4 rgb_ycc_start
00004db0 l     F .text	0000029c rgb_ycc_convert
0000504c l     F .text	00000174 rgb_gray_convert
000051c0 l     F .text	000002f4 cmyk_ycck_convert
000054b4 l     F .text	000000ec grayscale_convert
000055a0 l     F .text	00000128 null_convert
000056c8 l     F .text	00000020 null_method
00000000 l    df *ABS*	00000000 jcdctmgr.c
00005c6c l     F .text	0000021c forward_DCT
00005e88 l     F .text	000001a4 forward_DCT_float
0003e680 l     O .rodata	00000040 aanscalefactor.4131
0003e6c0 l     O .rodata	00000080 aanscales.4123
0000602c l     F .text	000006fc start_pass_fdctmgr
00000000 l    df *ABS*	00000000 jchuff.c
000067e4 l     F .text	00000460 jpeg_make_c_derived_tbl
00006c44 l     F .text	0000008c dump_buffer_s
00006cd0 l     F .text	000000ac dump_buffer_e
00006d7c l     F .text	00000068 flush_bits_s
00006de4 l     F .text	000001f8 emit_bits_s
00006fdc l     F .text	00000048 flush_bits_e
00007024 l     F .text	000001d8 emit_bits_e
000071fc l     F .text	0000008c emit_buffered_bits
00007288 l     F .text	00000110 emit_eobrun
00007398 l     F .text	000000e0 emit_ac_symbol
00007478 l     F .text	00000154 emit_restart_s
000075cc l     F .text	00000150 emit_restart_e
0000771c l     F .text	000002d8 encode_mcu_DC_first
000079f4 l     F .text	000000e0 emit_dc_symbol
00007ad4 l     F .text	0000035c encode_mcu_AC_first
00007e30 l     F .text	000001a4 encode_mcu_DC_refine
00007fd4 l     F .text	00000440 encode_mcu_AC_refine
00008414 l     F .text	000003dc encode_one_block
000087f0 l     F .text	000002ec encode_mcu_huff
00008adc l     F .text	00000194 finish_pass_huff
00008c70 l     F .text	00000280 htest_one_block
00008ef0 l     F .text	000001f4 encode_mcu_gather
000090e4 l     F .text	0000070c jpeg_gen_optimal_table
000097f0 l     F .text	00000224 finish_pass_gather
00009a14 l     F .text	00000498 start_pass_huff
00000000 l    df *ABS*	00000000 jcinit.c
00000000 l    df *ABS*	00000000 jcmainct.c
0000a104 l     F .text	000000b8 start_pass_main
0000a1bc l     F .text	00000170 process_data_simple_main
00000000 l    df *ABS*	00000000 jcmarker.c
0000a484 l     F .text	000000b8 emit_byte
0000a53c l     F .text	00000044 emit_marker
0000a580 l     F .text	00000050 emit_2bytes
0000a5d0 l     F .text	00000204 emit_dqt
0000a7d4 l     F .text	000001dc emit_dht
0000a9b0 l     F .text	00000294 emit_dac
0000ac44 l     F .text	00000054 emit_dri
0000ac98 l     F .text	00000178 emit_sof
0000ae10 l     F .text	00000170 emit_sos
0000af80 l     F .text	00000084 emit_pseudo_sos
0000b004 l     F .text	000000f8 emit_jfif_app0
0000b0fc l     F .text	000000f4 emit_adobe_app14
0000b1f0 l     F .text	00000080 write_marker_header
0000b270 l     F .text	00000038 write_marker_byte
0000b2a8 l     F .text	00000080 write_file_header
0000b328 l     F .text	00000244 write_frame_header
0000b56c l     F .text	00000124 write_scan_header
0000b690 l     F .text	00000034 write_file_trailer
0000b6c4 l     F .text	0000012c write_tables_only
00000000 l    df *ABS*	00000000 jcmaster.c
0000b914 l     F .text	00000098 jpeg_calc_trans_dimensions
0000b9ac l     F .text	000006ec initial_setup
0000c098 l     F .text	000007e4 validate_script
0000c87c l     F .text	00000150 reduce_script
0000c9cc l     F .text	00000228 select_scan_parameters
0000cbf4 l     F .text	000003d8 per_scan_setup
0000cfcc l     F .text	0000032c prepare_for_pass
0000d2f8 l     F .text	0000005c pass_startup
0000d354 l     F .text	0000010c finish_pass_master
00000000 l    df *ABS*	00000000 jcomapi.c
00000000 l    df *ABS*	00000000 jcparam.c
0003e740 l     O .rodata	00000100 std_luminance_quant_tbl
0003e840 l     O .rodata	00000100 std_chrominance_quant_tbl
0000db68 l     F .text	00000128 add_huff_table
0003e940 l     O .rodata	000000a2 val_ac_chrominance.3781
0003e9e2 l     O .rodata	00000011 bits_ac_chrominance.3780
0003e9f3 l     O .rodata	000000a2 val_ac_luminance.3779
0003ea95 l     O .rodata	00000011 bits_ac_luminance.3778
0003eaa6 l     O .rodata	0000000c val_dc_chrominance.3777
0003eab2 l     O .rodata	00000011 bits_dc_chrominance.3776
0003eac3 l     O .rodata	0000000c val_dc_luminance.3775
0003eacf l     O .rodata	00000011 bits_dc_luminance.3774
0000dc90 l     F .text	000000b0 std_huff_tables
0000e74c l     F .text	00000084 fill_a_scan
0000e7d0 l     F .text	000000a4 fill_scans
0000e874 l     F .text	000000f8 fill_dc_scans
00000000 l    df *ABS*	00000000 jcprepct.c
0000ed14 l     F .text	000000a0 start_pass_prep
0000edb4 l     F .text	00000080 expand_bottom_edge
0000ee34 l     F .text	00000328 pre_process_data
0000f15c l     F .text	00000380 pre_process_context
0000f4dc l     F .text	0000025c create_context_buffer
00000000 l    df *ABS*	00000000 jcsample.c
0000f8e4 l     F .text	00000020 start_pass_downsample
0000f904 l     F .text	000000dc expand_right_edge
0000f9e0 l     F .text	00000130 sep_downsample
0000fb10 l     F .text	00000234 int_downsample
0000fd44 l     F .text	0000008c fullsize_downsample
0000fdd0 l     F .text	00000150 h2v1_downsample
0000ff20 l     F .text	000001bc h2v2_downsample
000100dc l     F .text	00000694 h2v2_smooth_downsample
00010770 l     F .text	000003b4 fullsize_smooth_downsample
00000000 l    df *ABS*	00000000 jctrans.c
00011484 l     F .text	0000009c transencode_master_selection
00011a4c l     F .text	00000100 transencode_coef_controller
00011520 l     F .text	000000a0 start_iMCU_row
000115c0 l     F .text	00000078 start_pass_coef
00011638 l     F .text	00000414 compress_output
00000000 l    df *ABS*	00000000 jdatadst.c
00011b4c l     F .text	00000078 init_destination
00011bc4 l     F .text	00000020 init_mem_destination
00011be4 l     F .text	0000009c empty_output_buffer
00011c80 l     F .text	00000120 empty_mem_output_buffer
00011da0 l     F .text	000000ec term_destination
00011e8c l     F .text	00000060 term_mem_destination
00000000 l    df *ABS*	00000000 jerror.c
0001216c l     F .text	00000038 error_exit
000121a4 l     F .text	00000060 output_message
00012204 l     F .text	000000ac emit_message
000122b0 l     F .text	00000210 format_message
000124c0 l     F .text	00000038 reset_error_mgr
00000000 l    df *ABS*	00000000 jfdctflt.c
00000000 l    df *ABS*	00000000 jfdctfst.c
00000000 l    df *ABS*	00000000 jfdctint.c
00000000 l    df *ABS*	00000000 jidctflt.c
00000000 l    df *ABS*	00000000 jidctfst.c
00000000 l    df *ABS*	00000000 jidctint.c
00000000 l    df *ABS*	00000000 jmemansi.c
00024254 l     F .text	000000bc read_backing_store
00024310 l     F .text	000000bc write_backing_store
000243cc l     F .text	00000038 close_backing_store
00000000 l    df *ABS*	00000000 jmemmgr.c
0002450c l     F .text	00000060 out_of_memory
00042770 l     O .rwdata	00000008 first_pool_slop
00042778 l     O .rwdata	00000008 extra_pool_slop
0002456c l     F .text	000002e4 alloc_small
00024850 l     F .text	00000180 alloc_large
000249d0 l     F .text	00000198 alloc_sarray
00024b68 l     F .text	000001a8 alloc_barray
00024d10 l     F .text	000000f4 request_virt_sarray
00024e04 l     F .text	000000f4 request_virt_barray
00024ef8 l     F .text	000003e8 realize_virt_arrays
000252e0 l     F .text	0000020c do_sarray_io
000254ec l     F .text	00000210 do_barray_io
000256fc l     F .text	00000308 access_virt_sarray
00025a04 l     F .text	0000030c access_virt_barray
00025d10 l     F .text	000002b0 free_pool
00025fc0 l     F .text	0000007c self_destruct
00000000 l    df *ABS*	00000000 jquant1.c
00040008 l     O .rodata	00000100 base_dither_matrix
00040108 l     O .rodata	0000000c RGB_order.3665
000262ec l     F .text	00000250 select_ncolors
0002653c l     F .text	00000058 output_value
00026594 l     F .text	00000058 largest_input_value
000265ec l     F .text	0000027c create_colormap
00026868 l     F .text	00000268 create_colorindex
00026ad0 l     F .text	0000014c make_odither_array
00026c1c l     F .text	00000120 create_odither_tables
00026d3c l     F .text	0000016c color_quantize
00026ea8 l     F .text	000001a4 color_quantize3
0002704c l     F .text	0000021c quantize_ord_dither
00027268 l     F .text	00000288 quantize3_ord_dither
000274f0 l     F .text	000003d8 quantize_fs_dither
000278c8 l     F .text	000000b0 alloc_fs_workspace
00027978 l     F .text	000001ec start_pass_1_quant
00027b64 l     F .text	00000020 finish_pass_1_quant
00027b84 l     F .text	0000004c new_color_map_1_quant
00000000 l    df *ABS*	00000000 jquant2.c
00027d14 l     F .text	0000016c prescan_quantize
00027e80 l     F .text	00000098 find_biggest_color_pop
00027f18 l     F .text	00000088 find_biggest_volume
00027fa0 l     F .text	000007a8 update_box
00028748 l     F .text	000002c8 median_cut
00028a10 l     F .text	00000290 compute_color
00028ca0 l     F .text	0000013c select_colors
00028ddc l     F .text	00000564 find_nearby_colors
00029340 l     F .text	000002ec find_best_colors
0002962c l     F .text	000001fc fill_inverse_cmap
00029828 l     F .text	000001cc pass2_no_dither
000299f4 l     F .text	000006a4 pass2_fs_dither
0002a098 l     F .text	000001c8 init_error_limit
0002a260 l     F .text	00000060 finish_pass1
0002a2c0 l     F .text	00000020 finish_pass2
0002a2e0 l     F .text	00000258 start_pass_2_quant
0002a538 l     F .text	00000038 new_color_map_2_quant
00000000 l    df *ABS*	00000000 jutils.c
00000000 l    df *ABS*	00000000 jpeg_encoder.c
00000000 l    df *ABS*	00000000 fp-bit.c
0002aba8 l     F .text	000001e4 _fpadd_parts
00000000 l    df *ABS*	00000000 fp-bit.c
00000000 l    df *ABS*	00000000 fp-bit.c
00000000 l    df *ABS*	00000000 fp-bit.c
00000000 l    df *ABS*	00000000 fp-bit.c
00000000 l    df *ABS*	00000000 dp-bit.c
00000000 l    df *ABS*	00000000 dp-bit.c
00000000 l    df *ABS*	00000000 dp-bit.c
00000000 l    df *ABS*	00000000 dp-bit.c
00000000 l    df *ABS*	00000000 dp-bit.c
00000000 l    df *ABS*	00000000 lib2-divmod.c
0002b990 l     F .text	0000007c udivmodsi4
00000000 l    df *ABS*	00000000 libgcc2.c
00000000 l    df *ABS*	00000000 libgcc2.c
00000000 l    df *ABS*	00000000 fp-bit.c
00000000 l    df *ABS*	00000000 fp-bit.c
00000000 l    df *ABS*	00000000 fp-bit.c
00000000 l    df *ABS*	00000000 dp-bit.c
00000000 l    df *ABS*	00000000 dp-bit.c
00000000 l    df *ABS*	00000000 libgcc2.c
00000000 l    df *ABS*	00000000 ctype_.c
000408ad l     O .rodata	00000180 _ctype_b
00000000 l    df *ABS*	00000000 exit.c
00000000 l    df *ABS*	00000000 fclose.c
00000000 l    df *ABS*	00000000 fflush.c
00000000 l    df *ABS*	00000000 findfp.c
0002c620 l     F .text	00000058 std
0002c72c l     F .text	00000008 __fp_lock
0002c734 l     F .text	00000008 __fp_unlock
00000000 l    df *ABS*	00000000 fopen.c
00000000 l    df *ABS*	00000000 fprintf.c
00000000 l    df *ABS*	00000000 fread.c
00000000 l    df *ABS*	00000000 mallocr.c
00000000 l    df *ABS*	00000000 fseek.c
00000000 l    df *ABS*	00000000 fstatr.c
00000000 l    df *ABS*	00000000 ftell.c
00000000 l    df *ABS*	00000000 fwalk.c
00000000 l    df *ABS*	00000000 fwrite.c
00000000 l    df *ABS*	00000000 getenv.c
00000000 l    df *ABS*	00000000 getenv_r.c
00000000 l    df *ABS*	00000000 impure.c
00040d04 l     O .rwdata	00000400 impure_data
00000000 l    df *ABS*	00000000 int_errno.c
00000000 l    df *ABS*	00000000 makebuf.c
00000000 l    df *ABS*	00000000 malloc.c
00000000 l    df *ABS*	00000000 mallocr.c
00000000 l    df *ABS*	00000000 memcpy.c
00000000 l    df *ABS*	00000000 memset.c
00000000 l    df *ABS*	00000000 openr.c
00000000 l    df *ABS*	00000000 printf.c
00000000 l    df *ABS*	00000000 puts.c
00000000 l    df *ABS*	00000000 refill.c
0002e814 l     F .text	0000001c lflush
00000000 l    df *ABS*	00000000 rewind.c
00000000 l    df *ABS*	00000000 sbrkr.c
00000000 l    df *ABS*	00000000 scanf.c
00000000 l    df *ABS*	00000000 sprintf.c
00000000 l    df *ABS*	00000000 sscanf.c
0002ea3c l     F .text	00000008 eofread
00000000 l    df *ABS*	00000000 stdio.c
00000000 l    df *ABS*	00000000 strcat.c
00000000 l    df *ABS*	00000000 strcmp.c
00000000 l    df *ABS*	00000000 strcpy.c
00000000 l    df *ABS*	00000000 strlen.c
00000000 l    df *ABS*	00000000 strncmp.c
00000000 l    df *ABS*	00000000 strncpy.c
00000000 l    df *ABS*	00000000 tmpfile.c
00000000 l    df *ABS*	00000000 tmpnam.c
0002f16c l     F .text	000000d8 worker
00000000 l    df *ABS*	00000000 vfprintf.c
0002f3e8 l     F .text	00000058 __sprint_r
00040aca l     O .rodata	00000010 blanks.3452
00040aba l     O .rodata	00000010 zeroes.3453
00000000 l    df *ABS*	00000000 vfscanf.c
00040ae2 l     O .rodata	00000022 basefix.3357
00000000 l    df *ABS*	00000000 writer.c
00000000 l    df *ABS*	00000000 wsetup.c
00000000 l    df *ABS*	00000000 __call_atexit.c
00032c44 l     F .text	00000004 register_fini
00000000 l    df *ABS*	00000000 closer.c
00000000 l    df *ABS*	00000000 dtoa.c
00032e68 l     F .text	00000218 quorem
00000000 l    df *ABS*	00000000 environ.c
0004432c l     O .bss	00000004 initial_env
00000000 l    df *ABS*	00000000 fdopen.c
00000000 l    df *ABS*	00000000 flags.c
00000000 l    df *ABS*	00000000 fvwrite.c
00000000 l    df *ABS*	00000000 isattyr.c
00000000 l    df *ABS*	00000000 iswspace.c
00000000 l    df *ABS*	00000000 locale.c
0004279c l     O .rwdata	00000004 charset
00040b24 l     O .rodata	00000030 lconv
00000000 l    df *ABS*	00000000 lseekr.c
00000000 l    df *ABS*	00000000 mbrtowc.c
00000000 l    df *ABS*	00000000 mbtowc_r.c
00000000 l    df *ABS*	00000000 memchr.c
00000000 l    df *ABS*	00000000 memmove.c
00000000 l    df *ABS*	00000000 mprec.c
00040c6c l     O .rodata	0000000c p05.2458
00000000 l    df *ABS*	00000000 readr.c
00000000 l    df *ABS*	00000000 mallocr.c
00000000 l    df *ABS*	00000000 remove.c
00000000 l    df *ABS*	00000000 s_isinfd.c
00000000 l    df *ABS*	00000000 s_isnand.c
00000000 l    df *ABS*	00000000 sccl.c
00000000 l    df *ABS*	00000000 sf_nan.c
00000000 l    df *ABS*	00000000 signalr.c
00000000 l    df *ABS*	00000000 strtod.c
00036918 l     F .text	00000048 match
0004152c l     O .rwdata	00000014 fpi.1950
00040c88 l     O .rodata	00000028 tinytens
00041518 l     O .rwdata	00000014 fpinan.1986
00000000 l    df *ABS*	00000000 strtol.c
00000000 l    df *ABS*	00000000 strtoll_r.c
00000000 l    df *ABS*	00000000 strtoul.c
00000000 l    df *ABS*	00000000 strtoull_r.c
00000000 l    df *ABS*	00000000 ungetc.c
00000000 l    df *ABS*	00000000 unlinkr.c
00000000 l    df *ABS*	00000000 mallocr.c
00000000 l    df *ABS*	00000000 gdtoa-gethex.c
00038e00 l     F .text	00000024 htinit
00038e8c l     F .text	000000b0 rshift
00000000 l    df *ABS*	00000000 gdtoa-hexnan.c
000396f4 l     F .text	0000004c L_shift
00000000 l    df *ABS*	00000000 libgcc2.c
00000000 l    df *ABS*	00000000 libgcc2.c
00000000 l    df *ABS*	00000000 libgcc2.c
00000000 l    df *ABS*	00000000 fp-bit.c
00000000 l    df *ABS*	00000000 fp-bit.c
00000000 l    df *ABS*	00000000 fp-bit.c
00000000 l    df *ABS*	00000000 dp-bit.c
0003a720 l     F .text	00000410 _fpadd_parts
00000000 l    df *ABS*	00000000 dp-bit.c
00000000 l    df *ABS*	00000000 dp-bit.c
00000000 l    df *ABS*	00000000 dp-bit.c
00000000 l    df *ABS*	00000000 dp-bit.c
00000000 l    df *ABS*	00000000 dp-bit.c
00000000 l    df *ABS*	00000000 dp-bit.c
00000000 l    df *ABS*	00000000 dp-bit.c
00000000 l    df *ABS*	00000000 dp-bit.c
00000000 l    df *ABS*	00000000 fp-bit.c
00000000 l    df *ABS*	00000000 dp-bit.c
00000000 l    df *ABS*	00000000 alt_close.c
0003b390 l     F .text	00000060 alt_get_errno
00000000 l    df *ABS*	00000000 alt_dev.c
0003b3f0 l     F .text	0000002c alt_dev_null_write
00000000 l    df *ABS*	00000000 alt_env_lock.c
00000000 l    df *ABS*	00000000 alt_errno.c
00000000 l    df *ABS*	00000000 alt_exit.c
0003b45c l     F .text	00000040 alt_sim_halt
00000000 l    df *ABS*	00000000 alt_fstat.c
0003b590 l     F .text	00000060 alt_get_errno
00000000 l    df *ABS*	00000000 alt_getpid.c
00000000 l    df *ABS*	00000000 alt_isatty.c
0003b6d0 l     F .text	00000060 alt_get_errno
00000000 l    df *ABS*	00000000 alt_kill.c
0003b870 l     F .text	00000060 alt_get_errno
00000000 l    df *ABS*	00000000 alt_load.c
0003b950 l     F .text	0000006c alt_load_section
00000000 l    df *ABS*	00000000 alt_lseek.c
0003baac l     F .text	00000060 alt_get_errno
00000000 l    df *ABS*	00000000 alt_main.c
00000000 l    df *ABS*	00000000 alt_malloc_lock.c
00000000 l    df *ABS*	00000000 alt_open.c
0003bbb8 l     F .text	000000dc alt_file_locked
0003be1c l     F .text	00000060 alt_get_errno
00000000 l    df *ABS*	00000000 alt_read.c
0003bf9c l     F .text	00000060 alt_get_errno
00000000 l    df *ABS*	00000000 alt_release_fd.c
00000000 l    df *ABS*	00000000 alt_sbrk.c
000427b8 l     O .rwdata	00000004 heap_end
00000000 l    df *ABS*	00000000 alt_unlink.c
0003c154 l     F .text	00000060 alt_get_errno
00000000 l    df *ABS*	00000000 alt_write.c
0003c2d4 l     F .text	00000060 alt_get_errno
00000000 l    df *ABS*	00000000 alt_sys_init.c
000416e8 l     O .rwdata	00001060 jtag_uart
00042748 l     O .rwdata	00000028 altera_hostfs
0003c3cc l     F .text	00000038 alt_dev_reg
00000000 l    df *ABS*	00000000 altera_avalon_jtag_uart_fd.c
00000000 l    df *ABS*	00000000 altera_avalon_jtag_uart_init.c
0003c60c l     F .text	00000228 altera_avalon_jtag_uart_irq
0003c834 l     F .text	000000b0 altera_avalon_jtag_uart_timeout
00000000 l    df *ABS*	00000000 altera_avalon_jtag_uart_ioctl.c
00000000 l    df *ABS*	00000000 altera_avalon_jtag_uart_read.c
00000000 l    df *ABS*	00000000 altera_avalon_jtag_uart_write.c
00000000 l    df *ABS*	00000000 altera_avalon_timer_sc.c
0003ceb0 l     F .text	00000070 alt_avalon_timer_sc_irq
00000000 l    df *ABS*	00000000 altera_hostfs.c
000427bc l     O .rwdata	00000004 hcinfo.2234
000427c8 l     O .rwdata	00000004 hcinfo.2276
000427d4 l     O .rwdata	00000004 hcinfo.2289
000427e0 l     O .rwdata	00000004 hcinfo.2311
000427ec l     O .rwdata	00000004 hcinfo.2333
000427f8 l     O .rwdata	00000004 hcinfo.2368
00000000 l    df *ABS*	00000000 alt_alarm_start.c
00000000 l    df *ABS*	00000000 alt_dcache_flush_all.c
00000000 l    df *ABS*	00000000 alt_dev_llist_insert.c
0003d774 l     F .text	00000060 alt_get_errno
00000000 l    df *ABS*	00000000 alt_do_ctors.c
00000000 l    df *ABS*	00000000 alt_do_dtors.c
00000000 l    df *ABS*	00000000 alt_find_dev.c
00000000 l    df *ABS*	00000000 alt_find_file.c
00000000 l    df *ABS*	00000000 alt_fs_reg.c
00000000 l    df *ABS*	00000000 alt_get_fd.c
00000000 l    df *ABS*	00000000 alt_icache_flush_all.c
00000000 l    df *ABS*	00000000 alt_iic.c
00000000 l    df *ABS*	00000000 alt_iic_isr_register.c
00000000 l    df *ABS*	00000000 alt_io_redirect.c
0003de94 l     F .text	000000c4 alt_open_fd
00000000 l    df *ABS*	00000000 alt_irq_vars.c
00000000 l    df *ABS*	00000000 alt_tick.c
00000000 l    df *ABS*	00000000 altera_nios2_qsys_irq.c
00000000 l    df *ABS*	00000000 alt_icache_flush.c
00000000 l    df *ABS*	00000000 atexit.c
00000000 l    df *ABS*	00000000 memcmp.c
00000000 l    df *ABS*	00000000 __atexit.c
00040358 g     O .rodata	000000d0 jpeg_natural_order6
000354d4 g     F .text	00000094 _mprec_log10
00010fd4 g     F .text	000004b0 jpeg_copy_critical_parameters
000355c0 g     F .text	00000088 __any_on
00034c2c g     F .text	00000070 _isatty_r
0004437c g     O .bss	00000034 g_input_file_header
00040c44 g     O .rodata	00000028 __mprec_tinytens
0003bb0c g     F .text	0000006c alt_main
0002ede8 g     F .text	0000008c strcpy
0002e59c g     F .text	000000a0 _puts_r
040444b0 g     O .bss	00000100 alt_irq
0001a09c g     F .text	00000c80 jpeg_idct_13x13
00034d8c g     F .text	00000078 _lseek_r
00042810 g       *ABS*	00000000 __flash_rwdata_start
0000f738 g     F .text	000001ac jinit_c_prep_controller
000346f0 g     F .text	000000a0 __sflags
0002f15c g     F .text	00000010 tmpfile
0003ac24 g     F .text	00000088 __eqdf2
000238c8 g     F .text	0000047c jpeg_idct_3x6
04044740 g       *ABS*	00000000 __alt_heap_start
000368a4 g     F .text	00000074 _kill_r
0002e524 g     F .text	00000044 printf
0002eb58 g     F .text	00000068 __sseek
0002c688 g     F .text	000000a4 __sinit
00034cec g     F .text	00000084 _setlocale_r
0002c788 g     F .text	00000068 __sfmoreglue
00038cc0 g     F .text	0000001c ungetc
0003bb98 g     F .text	00000020 __malloc_unlock
0000d9ac g     F .text	00000074 jpeg_default_qtables
0003cfb0 g     F .text	00000154 alt_hostfs_open
00036960 g     F .text	000014e4 _strtod_r
0002413c g     F .text	00000034 jpeg_get_small
00013ad8 g     F .text	00000af0 jpeg_idct_float
0000e044 g     F .text	00000708 jpeg_set_colorspace
0000da90 g     F .text	0000008c jpeg_quality_scaling
0002295c g     F .text	00000748 jpeg_idct_5x10
00034fe8 g     F .text	000000e0 memmove
0000e96c g     F .text	000003a8 jpeg_simple_progression
0002c778 g     F .text	00000010 _cleanup
00035648 g     F .text	000000bc _Balloc
0002b0d8 g     F .text	00000094 __fixsfsi
00012ce8 g     F .text	00000668 jpeg_fdct_ifast
00040428 g     O .rodata	000000a4 jpeg_natural_order5
0003ad34 g     F .text	00000088 __gtdf2
00000000  w      *UND*	00000000 __errno
000177dc g     F .text	000000a8 jpeg_idct_1x1
08200000 g     F .entry	0000001c __reset
0002d908 g     F .text	0000002c getenv
00000000 g       *ABS*	00000000 __flash_exceptions_start
00015090 g     F .text	00000bc8 jpeg_idct_islow
0002d52c g     F .text	00000074 _fstat_r
0004431c g     O .bss	00000004 errno
00032990 g     F .text	00000024 __svfscanf
00003bdc g     F .text	000000d8 jinit_arith_encoder
00018ac8 g     F .text	00000af0 jpeg_idct_11x11
0002be1c g     F .text	0000002c __make_fp
00044340 g     O .bss	00000004 alt_argv
0004a770 g       *ABS*	00000000 _gp
0002ad8c g     F .text	00000070 __subsf3
0003b5f0 g     F .text	00000020 getpid
0001b988 g     F .text	00000d10 jpeg_idct_15x15
00020bd8 g     F .text	00000b78 jpeg_idct_8x16
00041568 g     O .rwdata	00000180 alt_fd_list
0001e340 g     F .text	00000a3c jpeg_idct_14x7
0000da20 g     F .text	00000070 jpeg_set_linear_quality
0003d298 g     F .text	000000a0 alt_hostfs_seek
0003d89c g     F .text	00000094 alt_find_dev
0002e374 g     F .text	000000a0 memcpy
00039740 g     F .text	00000248 __hexnan
0001d564 g     F .text	00000ddc jpeg_idct_16x8
00001108 g     F .text	00000044 jpeg_write_m_byte
0002c76c g     F .text	0000000c _cleanup_r
0002a84c g     F .text	00000058 jround_up
0003af54 g     F .text	000000f8 __floatsidf
0003da50 g     F .text	00000090 alt_fs_reg
0003df58 g     F .text	00000078 alt_io_redirect
0003ae44 g     F .text	00000088 __ltdf2
0003e3e4 g       *ABS*	00000000 __DTOR_END__
0000dd40 g     F .text	00000204 jpeg_set_defaults
0002e63c g     F .text	00000014 puts
00034e84 g     F .text	00000040 mbrtowc
0002f33c g     F .text	00000098 _tmpnam_r
000230a4 g     F .text	00000824 jpeg_idct_4x8
000329b4 g     F .text	00000068 _vfscanf_r
00035424 g     F .text	000000b0 __ratio
000404cc g     O .rodata	00000080 jpeg_natural_order4
0003ca4c g     F .text	00000224 altera_avalon_jtag_uart_read
000244c4 g     F .text	00000028 jpeg_mem_init
0002dc20 g     F .text	00000014 malloc
0002e568 g     F .text	00000034 _printf_r
00036754 g     F .text	00000014 remove
0002a808 g     F .text	00000044 jdiv_round_up
0002bacc g     F .text	00000008 __udivsi3
0003b610 g     F .text	000000c0 isatty
00034c9c g     F .text	0000002c iswspace
00040b54 g     O .rodata	000000c8 __mprec_tens
00034cc8 g     F .text	00000008 __locale_charset
00039988 g     F .text	000000a4 __fixunsdfsi
0003e194 g     F .text	00000090 alt_icache_flush
00044320 g     O .bss	00000004 __malloc_top_pad
000368a0 g     F .text	00000004 _getpid_r
00022124 g     F .text	00000838 jpeg_idct_6x12
000207f0 g     F .text	000002d4 jpeg_idct_4x2
00038734 g     F .text	00000024 strtoul
00042798 g     O .rwdata	00000004 __mb_cur_max
00034cd0 g     F .text	0000000c _localeconv_r
00038758 g     F .text	000002f0 _strtoull_r
00035d40 g     F .text	0000003c __i2b
00034790 g     F .text	0000049c __sfvwrite_r
0002e87c g     F .text	00000070 _sbrk_r
0001ad1c g     F .text	00000c6c jpeg_idct_14x14
0003d158 g     F .text	000000a0 alt_hostfs_read
00024404 g     F .text	000000c0 jpeg_open_backing_store
000172a8 g     F .text	00000314 jpeg_idct_3x3
000360bc g     F .text	00000078 _read_r
0004150c g     O .rwdata	0000000c __lc_ctype
000427b0 g     O .rwdata	00000004 alt_max_fd
0002c15c g     F .text	00000138 __unpack_d
0002c2cc g     F .text	00000110 _fclose_r
0002c5ec g     F .text	00000034 fflush
00044324 g     O .bss	00000004 __malloc_max_sbrked_mem
0003abb0 g     F .text	00000074 __adddf3
0003a5b8 g     F .text	00000078 __nesf2
00035304 g     F .text	00000120 __b2d
000056e8 g     F .text	00000584 jinit_color_converter
0003a008 g     F .text	000005b0 __umoddi3
0003b9bc g     F .text	000000f0 lseek
00042788 g     O .rwdata	00000004 _global_impure_ptr
0000d6cc g     F .text	0000005c jpeg_destroy
0003e4b8 g     O .rodata	000001c8 jpeg_aritab
00036134 g     F .text	000005f4 _realloc_r
04044740 g       *ABS*	00000000 __bss_end
0003dd9c g     F .text	000000f8 alt_iic_isr_register
0002a8a4 g     F .text	000000cc jcopy_sample_rows
0003e068 g     F .text	0000010c alt_tick
040443b0 g     O .bss	00000100 __hexdig
0002aa74 g     F .text	00000134 convert_picture
00039a2c g     F .text	000005dc __udivdi3
00040c1c g     O .rodata	00000028 __mprec_bigtens
00035f9c g     F .text	00000120 __s2b
000163fc g     F .text	000005cc jpeg_idct_6x6
0002b7fc g     F .text	00000194 __floatunsidf
00035224 g     F .text	00000060 __mcmp
0000d77c g     F .text	00000054 jpeg_alloc_huff_table
00042780 g     O .rwdata	00000004 __ctype_ptr
0002c754 g     F .text	00000018 __fp_lock_all
0003dd54 g     F .text	00000048 alt_ic_irq_enabled
0000a32c g     F .text	00000158 jinit_c_main_controller
0003dfd0 g     F .text	00000098 alt_alarm_stop
000381c8 g     F .text	00000024 strtol
00044348 g     O .bss	00000004 alt_irq_active
0003d104 g     F .text	00000054 alt_hostfs_close
08200000 g       *ABS*	00000000 __alt_mem_onchip_mem
082000ec g     F .exceptions	000000c8 alt_irq_handler
00041540 g     O .rwdata	00000028 alt_dev_null
0003fdf0 g     O .rodata	00000200 jpeg_std_message_table
0002bd54 g     F .text	000000c8 __unpack_f
00000f2c g     F .text	00000118 jpeg_write_marker
00023d44 g     F .text	000002e0 jpeg_idct_2x4
0003d6a4 g     F .text	0000001c alt_dcache_flush_all
000350f0 g     F .text	00000070 __hi0bits
0003b04c g     F .text	000000d8 __fixdfsi
0001c698 g     F .text	00000ecc jpeg_idct_16x16
00037f68 g     F .text	0000001c strtod
0002a570 g     F .text	00000298 jinit_2pass_quantizer
00042810 g       *ABS*	00000000 __ram_rwdata_end
00038cdc g     F .text	00000070 _unlink_r
000427a8 g     O .rwdata	00000008 alt_dev_list
0003c1b4 g     F .text	00000120 write
00009eac g     F .text	00000140 jinit_huff_encoder
0002e830 g     F .text	00000038 _rewind_r
0003a630 g     F .text	00000078 __gtsf2
00042794 g     O .rwdata	00000004 environ
00040d04 g       *ABS*	00000000 __ram_rodata_end
0003b4bc g     F .text	000000d4 fstat
0002c9f0 g     F .text	0000002c fprintf
0003b730 g     F .text	00000140 kill
0003aecc g     F .text	00000088 __ledf2
000125b8 g     F .text	00000730 jpeg_fdct_float
0002ec9c g     F .text	00000090 strcat
00035e7c g     F .text	00000120 __pow5mult
00044330 g     O .bss	00000004 __nlocale_changed
0002bad4 g     F .text	00000008 __umodsi3
0002e8ec g     F .text	00000034 _scanf_r
000124f8 g     F .text	000000c0 jpeg_std_error
04044740 g       *ABS*	00000000 end
0002bbf4 g     F .text	00000160 __pack_f
00040114 g     O .rodata	00000140 jpeg_natural_order
0002d508 g     F .text	00000024 fseek
000244ec g     F .text	00000020 jpeg_mem_term
0000090c g     F .text	00000034 read_stdin
0003c54c g     F .text	000000c0 altera_avalon_jtag_uart_init
000195b8 g     F .text	00000ae4 jpeg_idct_12x12
0003e3e0 g       *ABS*	00000000 __CTOR_LIST__
08000000 g       *ABS*	00000000 __alt_stack_pointer
0003cf20 g     F .text	00000090 alt_avalon_timer_sc_init
0002bb74 g     F .text	00000080 __clzsi2
0003cc70 g     F .text	00000240 altera_avalon_jtag_uart_write
0002f094 g     F .text	000000c8 _tmpfile_r
0002c678 g     F .text	00000004 __sfp_lock_acquire
00034f04 g     F .text	000000e4 memchr
0002f440 g     F .text	00001eac ___vfprintf_internal_r
0002e9dc g     F .text	00000060 _sprintf_r
0002cdb8 g     F .text	00000314 _free_r
000169c8 g     F .text	00000504 jpeg_idct_5x5
0000b7f0 g     F .text	000000cc jinit_marker_writer
00013350 g     F .text	00000788 jpeg_fdct_islow
00032c48 g     F .text	000001b0 __call_exitprocs
000014b8 g     F .text	000001c4 jpeg_write_raw_data
00027bd0 g     F .text	00000144 jinit_1pass_quantizer
0002603c g     F .text	000002b0 jinit_memory_mgr
00044334 g     O .bss	00000004 __mlocale_changed
00042790 g     O .rwdata	00000004 __malloc_sbrk_base
00000194 g     F .text	0000003c _start
0004434c g     O .bss	00000004 _alt_tick_rate
000381ec g     F .text	00000318 _strtoll_r
00035a0c g     F .text	0000014c __lshift
00044350 g     O .bss	00000004 _alt_nticks
0003be7c g     F .text	00000120 read
000145c8 g     F .text	00000ac8 jpeg_idct_ifast
0003c368 g     F .text	00000064 alt_sys_init
0002b040 g     F .text	00000098 __floatsisf
0002e4ac g     F .text	00000078 _open_r
0001812c g     F .text	0000099c jpeg_idct_10x10
0003e2ac g     F .text	00000134 __register_exitproc
00024214 g     F .text	00000040 jpeg_mem_available
0002eee8 g     F .text	000000f0 strncmp
0002a9bc g     F .text	00000040 jzero_far
00035b58 g     F .text	000001e8 __multiply
0003c8e4 g     F .text	00000074 altera_avalon_jtag_uart_close
00040d04 g       *ABS*	00000000 __ram_rwdata_start
0003e3e4 g       *ABS*	00000000 __ram_rodata_start
0002efd8 g     F .text	000000bc strncpy
0003c118 g     F .text	0000003c unlink
00044354 g     O .bss	00000028 __malloc_current_mallinfo
00035704 g     F .text	0000017c __d2b
0003c404 g     F .text	00000058 altera_avalon_jtag_uart_read_fd
00038504 g     F .text	00000230 _strtoul_r
00034634 g     F .text	000000a0 _fdopen_r
0003dae0 g     F .text	000000b8 alt_get_fd
000175bc g     F .text	00000220 jpeg_idct_2x2
0003b1cc g     F .text	000000c8 __fpcmp_parts_d
00032df8 g     F .text	00000070 _close_r
000001d0 g     F .text	00000128 bmp_extract_header
0003e238 g     F .text	00000074 memcmp
0003c4b4 g     F .text	00000048 altera_avalon_jtag_uart_close_fd
04044740 g       *ABS*	00000000 __alt_stack_base
0003c4fc g     F .text	00000050 altera_avalon_jtag_uart_ioctl_fd
0002d82c g     F .text	0000009c _fwrite_r
000346d4 g     F .text	0000001c fdopen
0002eacc g     F .text	00000084 sscanf
00000c18 g     F .text	0000010c jpeg_suppress_tables
00032b08 g     F .text	0000013c __swsetup_r
0002b530 g     F .text	00000258 __divdf3
0002c7f0 g     F .text	000000f0 __sfp
00035568 g     F .text	00000058 __copybits
00041104 g     O .rwdata	00000408 __malloc_av_
0002c684 g     F .text	00000004 __sinit_lock_release
0002b16c g     F .text	000003c4 __muldf3
0002ec3c g     F .text	00000060 __sread
00040688 g     O .rodata	00000010 __thenan_sf
0002cc4c g     F .text	00000040 fread
0003d930 g     F .text	00000120 alt_find_file
00000be8 g     F .text	00000030 jpeg_abort_compress
0003d6c0 g     F .text	000000b4 alt_dev_llist_insert
0003bb78 g     F .text	00000020 __malloc_lock
0002ca1c g     F .text	00000034 _fprintf_r
0003c05c g     F .text	000000bc sbrk
0002c3f0 g     F .text	000001fc _fflush_r
00038d4c g     F .text	000000b4 _calloc_r
0002c9d4 g     F .text	0000001c fopen
0004431c g       *ABS*	00000000 __bss_start
0002e414 g     F .text	00000098 memset
0002a9fc g     F .text	00000078 main
0000d7d0 g     F .text	000001dc jpeg_add_quant_table
0000d620 g     F .text	000000ac jpeg_abort
00044344 g     O .bss	00000004 alt_envp
00044328 g     O .bss	00000004 __malloc_max_total_mem
0003c45c g     F .text	00000058 altera_avalon_jtag_uart_write_fd
0002d698 g     F .text	00000014 ftell
0003a6a8 g     F .text	00000078 __ltsf2
0002ca50 g     F .text	000001fc _fread_r
0002eb50 g     F .text	00000008 __sclose
08000000 g       *ABS*	00000000 __alt_heap_limit
00001214 g     F .text	0000010c jpeg_start_compress
0002c3dc g     F .text	00000014 fclose
0000d728 g     F .text	00000054 jpeg_alloc_quant_table
00037f84 g     F .text	00000244 _strtol_r
0002b788 g     F .text	00000074 __truncdfsf2
0002d950 g     F .text	0000010c _findenv_r
00000bb8 g     F .text	00000030 jpeg_destroy_compress
040445b0 g     O .bss	00000190 _atexit0
00033080 g     F .text	000015b4 _dtoa_r
0002dc34 g     F .text	00000740 _malloc_r
0000114c g     F .text	000000c8 jpeg_write_tables
0000df44 g     F .text	00000100 jpeg_default_colorspace
000427b4 g     O .rwdata	00000004 alt_errno
000241a8 g     F .text	00000034 jpeg_get_large
00038a48 g     F .text	000000dc __submore
0001ed7c g     F .text	00000878 jpeg_idct_12x6
0003b43c g     F .text	00000020 __env_unlock
0002d934 g     F .text	0000001c _findenv
0002d774 g     F .text	000000b8 _fwalk
000002f8 g     F .text	000001b8 bmp_rearrange_comps
0002f3d4 g     F .text	00000014 tmpnam
00034ec4 g     F .text	00000040 _mbtowc_r
0002ba0c g     F .text	00000060 __divsi3
00040698 g     O .rodata	00000014 __thenan_df
0002cc8c g     F .text	0000012c _malloc_trim_r
0003e3e4 g       *ABS*	00000000 __CTOR_END__
0002ae60 g     F .text	000001e0 __mulsf3
0002ed2c g     F .text	000000bc strcmp
00000974 g     F .text	00000244 jpeg_CreateCompress
0003e3e4 g       *ABS*	00000000 __flash_rodata_start
0003e3e4 g       *ABS*	00000000 __DTOR_LIST__
0003acac g     F .text	00000088 __nedf2
0003c334 g     F .text	00000034 alt_irq_init
0003bffc g     F .text	00000060 alt_release_fd
0002e968 g     F .text	00000074 sprintf
000406ac g     O .rodata	00000100 __clz_tab
00044338 g     O .bss	00000004 _PathLocale
00037e44 g     F .text	00000124 strtof
0003e224 g     F .text	00000014 atexit
000241dc g     F .text	00000038 jpeg_free_large
00032a90 g     F .text	00000078 _write_r
0004054c g     O .rodata	00000064 jpeg_natural_order3
00034d70 g     F .text	0000001c setlocale
0002e920 g     F .text	00000048 scanf
00011f98 g     F .text	000001d4 jpeg_mem_dest
00006728 g     F .text	000000bc jinit_forward_dct
00036898 g     F .text	00000008 nanf
00042784 g     O .rwdata	00000004 _impure_ptr
0004433c g     O .bss	00000004 alt_argc
00034e04 g     F .text	00000080 _mbrtowc_r
0003d838 g     F .text	00000064 _do_dtors
0002d0cc g     F .text	0000043c _fseek_r
00021750 g     F .text	000009d4 jpeg_idct_7x14
0002e650 g     F .text	000001c4 __srefill_r
08200020 g       .exceptions	00000000 alt_irq_entry
00035284 g     F .text	00000080 __ulp
00036768 g     F .text	00000040 __isinfd
0002c73c g     F .text	00000018 __fp_unlock_all
00009fec g     F .text	00000118 jinit_compress_master
0000b8bc g     F .text	00000058 jpeg_calc_jpeg_dimensions
0000079c g     F .text	00000170 keymatch
0002038c g     F .text	00000464 jpeg_idct_6x3
000427a0 g     O .rwdata	00000008 alt_fs_list
00015c58 g     F .text	000007a4 jpeg_idct_7x7
00040254 g     O .rodata	00000104 jpeg_natural_order7
0003d1f8 g     F .text	000000a0 alt_hostfs_write
08200020 g       *ABS*	00000000 __ram_exceptions_start
00034cdc g     F .text	00000010 localeconv
00000d24 g     F .text	00000208 jpeg_finish_compress
00024024 g     F .text	00000118 jpeg_idct_1x2
000443b0 g     O .bss	04000000 g_file_buffer
0003dbc8 g     F .text	00000050 alt_ic_isr_register
0002f244 g     F .text	000000dc _tempnam_r
0002d8c8 g     F .text	00000040 fwrite
00038e24 g     F .text	00000068 __hexdig_init
0002ea44 g     F .text	00000088 _sscanf_r
00042810 g       *ABS*	00000000 _edata
0001fd4c g     F .text	00000640 jpeg_idct_8x4
04044740 g       *ABS*	00000000 _end
00020ac4 g     F .text	00000114 jpeg_idct_2x1
082001b4 g       *ABS*	00000000 __ram_exceptions_end
00032a1c g     F .text	00000074 vfscanf
0003c958 g     F .text	000000f4 altera_avalon_jtag_uart_ioctl
0002e868 g     F .text	00000014 rewind
0003dcb4 g     F .text	000000a0 alt_ic_irq_disable
0002ebc0 g     F .text	0000007c __swrite
0004278c g     O .rwdata	00000004 __malloc_trim_threshold
0003e174 g     F .text	00000020 altera_nios2_qsys_irq_init
00016ecc g     F .text	000003dc jpeg_idct_4x4
0002c294 g     F .text	00000038 exit
0002d6ac g     F .text	000000c8 _fwalk_reent
00001044 g     F .text	000000c4 jpeg_write_m_header
00035880 g     F .text	0000018c __mdiff
0002ba6c g     F .text	00000060 __modsi3
08000000 g       *ABS*	00000000 __alt_data_end
08200020 g     F .exceptions	00000000 alt_exception
0002c67c g     F .text	00000004 __sfp_lock_release
00000000 g       *ABS*	00000000 __alt_mem_sdram
00000648 g     F .text	00000154 jpeg_encode
00010b24 g     F .text	000003e8 jinit_downsampler
000367d8 g     F .text	000000c0 __sccl
000407ac g     O .rodata	00000101 _ctype_
0000db1c g     F .text	0000004c jpeg_set_quality
00011eec g     F .text	000000ac jpeg_stdio_dest
0003b124 g     F .text	000000a8 __fpcmp_parts_f
0002c8e0 g     F .text	000000f4 _fopen_r
000367a8 g     F .text	00000030 __isnand
0003b49c g     F .text	00000020 _exit
0003d550 g     F .text	00000154 alt_alarm_start
0002badc g     F .text	00000098 __muldi3
0002f320 g     F .text	0000001c tempnam
0002da78 g     F .text	00000194 __smakebuf_r
0002ee74 g     F .text	00000074 strlen
0003bc94 g     F .text	00000188 open
00001320 g     F .text	00000198 jpeg_write_scanlines
0003adbc g     F .text	00000088 __gedf2
00036728 g     F .text	0000002c _remove_r
00038f3c g     F .text	000007b8 __gethex
000004b0 g     F .text	00000198 bmp_extract
0002a970 g     F .text	0000004c jcopy_block_row
0002d5a0 g     F .text	000000f8 _ftell_r
00010f0c g     F .text	000000c8 jpeg_write_coefficients
0003db98 g     F .text	00000030 alt_icache_flush_all
00042804 g     O .rwdata	00000004 alt_priority_mask
0003dc18 g     F .text	0000009c alt_ic_irq_enable
00024170 g     F .text	00000038 jpeg_free_small
000312ec g     F .text	00000024 __vfprintf_internal
0003b41c g     F .text	00000020 __env_lock
00000940 g     F .text	00000034 write_stdout
0000d460 g     F .text	000001c0 jinit_c_master_control
0003ab30 g     F .text	00000080 __subdf3
00035160 g     F .text	000000c4 __lo0bits
00031310 g     F .text	00001680 __svfscanf_r
00042808 g     O .rwdata	00000008 alt_alarm_list
00038b24 g     F .text	0000019c _ungetc_r
0003d7d4 g     F .text	00000064 _do_ctors
00004a04 g     F .text	000001d8 jinit_c_coef_controller
0003b294 g     F .text	000000fc close
0002adfc g     F .text	00000064 __addsf3
0001f5f4 g     F .text	00000758 jpeg_idct_10x5
000405b0 g     O .rodata	00000050 jpeg_natural_order2
0003b8d0 g     F .text	00000080 alt_load
0002be48 g     F .text	00000314 __pack_d
00017884 g     F .text	000008a8 jpeg_idct_9x9
0002dc0c g     F .text	00000014 free
0002c680 g     F .text	00000004 __sinit_lock_acquire
00035d7c g     F .text	00000100 __multadd
000350c8 g     F .text	00000028 _Bfree
0002da5c g     F .text	0000001c _getenv_r
0003d338 g     F .text	00000218 alt_hostfs_fstat



Disassembly of section .entry:

08200000 <__reset>:
#if NIOS2_ICACHE_SIZE > 0 && defined(ALT_ALLOW_CODE_AT_RESET) && !defined(ALT_SIM_OPTIMIZE)
    /* Assume the instruction cache size is always a power of two. */
#if NIOS2_ICACHE_SIZE > 0x8000
    movhi r2, %hi(NIOS2_ICACHE_SIZE)
#else
    movui r2, NIOS2_ICACHE_SIZE
 8200000:	00840014 	movui	r2,4096
#endif

0:
    initi r2
 8200004:	1001483a 	initi	r2
    addi r2, r2, -NIOS2_ICACHE_LINE_SIZE
 8200008:	10bff804 	addi	r2,r2,-32
    bgt r2, zero, 0b
 820000c:	00bffd16 	blt	zero,r2,8200004 <__reset+0x4>
 * Jump to the _start entry point in the .text section if reset code
 * is allowed or if optimizing for RTL simulation.
 */
#if defined(ALT_ALLOW_CODE_AT_RESET) || defined(ALT_SIM_OPTIMIZE)
    /* Jump to the _start entry point in the .text section. */
    movhi r1, %hi(_start)
 8200010:	00400034 	movhi	at,0
    ori r1, r1, %lo(_start)
 8200014:	08406514 	ori	at,at,404
    jmp r1
 8200018:	0800683a 	jmp	at
 820001c:	00000000 	call	0 <__alt_mem_sdram>

Disassembly of section .exceptions:

08200020 <alt_exception>:
         * Process an exception.  For all exceptions we must preserve all
         * caller saved registers on the stack (See the Nios2 ABI
         * documentation for details).
         */

        addi  sp, sp, -76
 8200020:	deffed04 	addi	sp,sp,-76

#endif

#endif

        stw   ra,  0(sp)
 8200024:	dfc00015 	stw	ra,0(sp)
        /*
         * Leave a gap in the stack frame at 4(sp) for the muldiv handler to
         * store zero into.
         */

        stw   r1,   8(sp)
 8200028:	d8400215 	stw	at,8(sp)
        stw   r2,  12(sp)
 820002c:	d8800315 	stw	r2,12(sp)
        stw   r3,  16(sp)
 8200030:	d8c00415 	stw	r3,16(sp)
        stw   r4,  20(sp)
 8200034:	d9000515 	stw	r4,20(sp)
        stw   r5,  24(sp)
 8200038:	d9400615 	stw	r5,24(sp)
        stw   r6,  28(sp)
 820003c:	d9800715 	stw	r6,28(sp)
        stw   r7,  32(sp)
 8200040:	d9c00815 	stw	r7,32(sp)

        rdctl r5, estatus
 8200044:	000b307a 	rdctl	r5,estatus

        stw   r8,  36(sp)
 8200048:	da000915 	stw	r8,36(sp)
        stw   r9,  40(sp)
 820004c:	da400a15 	stw	r9,40(sp)
        stw   r10, 44(sp)
 8200050:	da800b15 	stw	r10,44(sp)
        stw   r11, 48(sp)
 8200054:	dac00c15 	stw	r11,48(sp)
        stw   r12, 52(sp)
 8200058:	db000d15 	stw	r12,52(sp)
        stw   r13, 56(sp)
 820005c:	db400e15 	stw	r13,56(sp)
        stw   r14, 60(sp)
 8200060:	db800f15 	stw	r14,60(sp)
        stw   r15, 64(sp)
 8200064:	dbc01015 	stw	r15,64(sp)
        /*
         * ea-4 contains the address of the instruction being executed
         * when the exception occured. For interrupt exceptions, we will
         * will be re-issue the isntruction. Store it in 72(sp)
         */
        stw   r5,  68(sp)  /* estatus */
 8200068:	d9401115 	stw	r5,68(sp)
        addi  r15, ea, -4  /* instruction that caused exception */
 820006c:	ebffff04 	addi	r15,ea,-4
        stw   r15,  72(sp)
 8200070:	dbc01215 	stw	r15,72(sp)
#else
        /*
         * Test to see if the exception was a software exception or caused 
         * by an external interrupt, and vector accordingly.
         */
        rdctl r4, ipending
 8200074:	0009313a 	rdctl	r4,ipending
        andi  r2, r5, 1
 8200078:	2880004c 	andi	r2,r5,1
        beq   r2, zero, .Lnot_irq
 820007c:	10000326 	beq	r2,zero,820008c <alt_exception+0x6c>
        beq   r4, zero, .Lnot_irq
 8200080:	20000226 	beq	r4,zero,820008c <alt_exception+0x6c>
        /*
         * Now that all necessary registers have been preserved, call 
         * alt_irq_handler() to process the interrupts.
         */

        call alt_irq_handler
 8200084:	82000ec0 	call	82000ec <alt_irq_handler>

        .section .exceptions.irqreturn, "xa"

        br    .Lexception_exit
 8200088:	00000306 	br	8200098 <alt_exception+0x78>
         * upon completion, so we write ea (address of instruction *after*
         * the one where the exception occured) into 72(sp). The actual
         * instruction that caused the exception is written in r2, which these
         * handlers will utilize.
         */
        stw   ea,  72(sp)  /* Don't re-issue */
 820008c:	df401215 	stw	ea,72(sp)
        ldw   r2, -4(ea)   /* Instruction that caused exception */
 8200090:	e8bfff17 	ldw	r2,-4(ea)
#ifdef NIOS2_HAS_DEBUG_STUB
       /*
        *  Either tell the user now (if there is a debugger attached) or go into
        *  the debug monitor which will loop until a debugger is attached.
        */
        break
 8200094:	003da03a 	break	0
        /* 
         * Restore the saved registers, so that all general purpose registers 
         * have been restored to their state at the time the interrupt occured.
         */

        ldw   r5,  68(sp)
 8200098:	d9401117 	ldw	r5,68(sp)
        ldw   ea,  72(sp)  /* This becomes the PC once eret is executed */
 820009c:	df401217 	ldw	ea,72(sp)
        ldw   ra,   0(sp)
 82000a0:	dfc00017 	ldw	ra,0(sp)

        wrctl estatus, r5
 82000a4:	2801707a 	wrctl	estatus,r5

        ldw   r1,   8(sp)
 82000a8:	d8400217 	ldw	at,8(sp)
        ldw   r2,  12(sp)
 82000ac:	d8800317 	ldw	r2,12(sp)
        ldw   r3,  16(sp)
 82000b0:	d8c00417 	ldw	r3,16(sp)
        ldw   r4,  20(sp)
 82000b4:	d9000517 	ldw	r4,20(sp)
        ldw   r5,  24(sp)
 82000b8:	d9400617 	ldw	r5,24(sp)
        ldw   r6,  28(sp)
 82000bc:	d9800717 	ldw	r6,28(sp)
        ldw   r7,  32(sp)
 82000c0:	d9c00817 	ldw	r7,32(sp)
#ifdef ALT_STACK_CHECK
        ldw   et, %gprel(alt_exception_old_stack_limit)(gp)
#endif
#endif

        ldw   r8,  36(sp)
 82000c4:	da000917 	ldw	r8,36(sp)
        ldw   r9,  40(sp)
 82000c8:	da400a17 	ldw	r9,40(sp)
        ldw   r10, 44(sp)
 82000cc:	da800b17 	ldw	r10,44(sp)
        ldw   r11, 48(sp)
 82000d0:	dac00c17 	ldw	r11,48(sp)
        ldw   r12, 52(sp)
 82000d4:	db000d17 	ldw	r12,52(sp)
        ldw   r13, 56(sp)
 82000d8:	db400e17 	ldw	r13,56(sp)
        ldw   r14, 60(sp)
 82000dc:	db800f17 	ldw	r14,60(sp)
        ldw   r15, 64(sp)
 82000e0:	dbc01017 	ldw	r15,64(sp)
#endif

        ldw   sp,  76(sp)

#else
        addi  sp, sp, 76
 82000e4:	dec01304 	addi	sp,sp,76

        /*
         * Return to the interrupted instruction.
         */

        eret
 82000e8:	ef80083a 	eret

082000ec <alt_irq_handler>:
 * instruction is present if the macro ALT_CI_INTERRUPT_VECTOR defined.
 */

void alt_irq_handler (void) __attribute__ ((section (".exceptions")));
void alt_irq_handler (void)
{
 82000ec:	defff904 	addi	sp,sp,-28
 82000f0:	dfc00615 	stw	ra,24(sp)
 82000f4:	df000515 	stw	fp,20(sp)
 82000f8:	df000504 	addi	fp,sp,20
#ifndef NIOS2_EIC_PRESENT
static ALT_INLINE alt_u32 ALT_ALWAYS_INLINE alt_irq_pending (void)
{
  alt_u32 active;

  NIOS2_READ_IPENDING (active);
 82000fc:	0005313a 	rdctl	r2,ipending
 8200100:	e0bffc15 	stw	r2,-16(fp)

  return active;
 8200104:	e0bffc17 	ldw	r2,-16(fp)
   * Consider the case where the high priority interupt is asserted during
   * the interrupt entry sequence for a lower priority interrupt to see why
   * this is the case.
   */

  active = alt_irq_pending ();
 8200108:	e0bfff15 	stw	r2,-4(fp)

  do
  {
    i = 0;
 820010c:	e03ffd15 	stw	zero,-12(fp)
    mask = 1;
 8200110:	00800044 	movi	r2,1
 8200114:	e0bffe15 	stw	r2,-8(fp)
     * called to clear the interrupt condition.
     */

    do
    {
      if (active & mask)
 8200118:	e0ffff17 	ldw	r3,-4(fp)
 820011c:	e0bffe17 	ldw	r2,-8(fp)
 8200120:	1884703a 	and	r2,r3,r2
 8200124:	1005003a 	cmpeq	r2,r2,zero
 8200128:	1000161e 	bne	r2,zero,8200184 <alt_irq_handler+0x98>
      { 
#ifdef ALT_ENHANCED_INTERRUPT_API_PRESENT
        alt_irq[i].handler(alt_irq[i].context); 
 820012c:	e0bffd17 	ldw	r2,-12(fp)
 8200130:	00c10134 	movhi	r3,1028
 8200134:	18d12c04 	addi	r3,r3,17584
 8200138:	100490fa 	slli	r2,r2,3
 820013c:	10c5883a 	add	r2,r2,r3
 8200140:	11400017 	ldw	r5,0(r2)
 8200144:	e0bffd17 	ldw	r2,-12(fp)
 8200148:	00c10134 	movhi	r3,1028
 820014c:	18d12c04 	addi	r3,r3,17584
 8200150:	100490fa 	slli	r2,r2,3
 8200154:	10c5883a 	add	r2,r2,r3
 8200158:	10800104 	addi	r2,r2,4
 820015c:	11000017 	ldw	r4,0(r2)
 8200160:	283ee83a 	callr	r5
#ifndef NIOS2_EIC_PRESENT
static ALT_INLINE alt_u32 ALT_ALWAYS_INLINE alt_irq_pending (void)
{
  alt_u32 active;

  NIOS2_READ_IPENDING (active);
 8200164:	0005313a 	rdctl	r2,ipending
 8200168:	e0bffb15 	stw	r2,-20(fp)

  return active;
 820016c:	e0bffb17 	ldw	r2,-20(fp)
      mask <<= 1;
      i++;

    } while (1);

    active = alt_irq_pending ();
 8200170:	e0bfff15 	stw	r2,-4(fp)
    
  } while (active);
 8200174:	e0bfff17 	ldw	r2,-4(fp)
 8200178:	1004c03a 	cmpne	r2,r2,zero
 820017c:	103fe31e 	bne	r2,zero,820010c <alt_irq_handler+0x20>
 8200180:	00000706 	br	82001a0 <alt_irq_handler+0xb4>
#else
        alt_irq[i].handler(alt_irq[i].context, i); 
#endif
        break;
      }
      mask <<= 1;
 8200184:	e0bffe17 	ldw	r2,-8(fp)
 8200188:	1085883a 	add	r2,r2,r2
 820018c:	e0bffe15 	stw	r2,-8(fp)
      i++;
 8200190:	e0bffd17 	ldw	r2,-12(fp)
 8200194:	10800044 	addi	r2,r2,1
 8200198:	e0bffd15 	stw	r2,-12(fp)

    } while (1);
 820019c:	003fde06 	br	8200118 <alt_irq_handler+0x2c>
  /*
   * Notify the operating system that interrupt processing is complete.
   */ 

  ALT_OS_INT_EXIT();
}
 82001a0:	e037883a 	mov	sp,fp
 82001a4:	dfc00117 	ldw	ra,4(sp)
 82001a8:	df000017 	ldw	fp,0(sp)
 82001ac:	dec00204 	addi	sp,sp,8
 82001b0:	f800283a 	ret

Disassembly of section .text:

00000194 <_start>:
#if (NIOS2_NUM_OF_SHADOW_REG_SETS == 0)    
    /*
     * Now that the caches are initialized, set up the stack pointer.
     * The value provided by the linker is assumed to be correctly aligned.
     */
    movhi sp, %hi(__alt_stack_pointer)
     194:	06c20034 	movhi	sp,2048
    ori sp, sp, %lo(__alt_stack_pointer)
     198:	dec00014 	ori	sp,sp,0

    /* Set up the global pointer. */
    movhi gp, %hi(_gp)
     19c:	06800134 	movhi	gp,4
    ori gp, gp, %lo(_gp)
     1a0:	d6a9dc14 	ori	gp,gp,42864
 */
#ifndef ALT_SIM_OPTIMIZE
    /* Log that the BSS is about to be cleared. */
    ALT_LOG_PUTS(alt_log_msg_bss)

    movhi r2, %hi(__bss_start)
     1a4:	00800134 	movhi	r2,4
    ori r2, r2, %lo(__bss_start)
     1a8:	1090c714 	ori	r2,r2,17180

    movhi r3, %hi(__bss_end)
     1ac:	00c10134 	movhi	r3,1028
    ori r3, r3, %lo(__bss_end)
     1b0:	18d1d014 	ori	r3,r3,18240

    beq r2, r3, 1f
     1b4:	10c00326 	beq	r2,r3,1c4 <_start+0x30>

0:
    stw zero, (r2)
     1b8:	10000015 	stw	zero,0(r2)
    addi r2, r2, 4
     1bc:	10800104 	addi	r2,r2,4
    bltu r2, r3, 0b
     1c0:	10fffd36 	bltu	r2,r3,1b8 <_start+0x24>
     * section aren't defined until alt_load() has been called).
     */
    mov   et, zero
#endif

    call alt_load
     1c4:	003b8d00 	call	3b8d0 <alt_load>

    /* Log that alt_main is about to be called. */
    ALT_LOG_PUTS(alt_log_msg_alt_main)

    /* Call the C entry point. It should never return. */
    call alt_main
     1c8:	003bb0c0 	call	3bb0c <alt_main>

000001cc <alt_after_alt_main>:

    /* Wait in infinite loop in case alt_main does return. */
alt_after_alt_main:
    br alt_after_alt_main
     1cc:	003fff06 	br	1cc <alt_after_alt_main>

000001d0 <bmp_extract_header>:
#include "bmp_extract.h"

int8_t g_file_buffer[67108864];	// Create and Enormous buffer to avoid dynamic memory allocation
Bmp_header g_input_file_header;

int bmp_extract_header(Bmp_data *pic_data) {
     1d0:	defffc04 	addi	sp,sp,-16
     1d4:	df000315 	stw	fp,12(sp)
     1d8:	df000304 	addi	fp,sp,12
     1dc:	e13ffe15 	stw	r4,-8(fp)
	int i;

	if (pic_data->buffer[0] == 'B' && pic_data->buffer[1] == 'M') {
     1e0:	e0bffe17 	ldw	r2,-8(fp)
     1e4:	10800117 	ldw	r2,4(r2)
     1e8:	10800003 	ldbu	r2,0(r2)
     1ec:	10803fcc 	andi	r2,r2,255
     1f0:	1080201c 	xori	r2,r2,128
     1f4:	10bfe004 	addi	r2,r2,-128
     1f8:	10801098 	cmpnei	r2,r2,66
     1fc:	1000381e 	bne	r2,zero,2e0 <bmp_extract_header+0x110>
     200:	e0bffe17 	ldw	r2,-8(fp)
     204:	10800117 	ldw	r2,4(r2)
     208:	10800044 	addi	r2,r2,1
     20c:	10800003 	ldbu	r2,0(r2)
     210:	10803fcc 	andi	r2,r2,255
     214:	1080201c 	xori	r2,r2,128
     218:	10bfe004 	addi	r2,r2,-128
     21c:	10801358 	cmpnei	r2,r2,77
     220:	10002f1e 	bne	r2,zero,2e0 <bmp_extract_header+0x110>
		for (i = 0; i < 52; i++) {
     224:	e03ffd15 	stw	zero,-12(fp)
     228:	00000e06 	br	264 <bmp_extract_header+0x94>
			pic_data->header->BMPRawData[i] = pic_data->buffer[i + 2];
     22c:	e0bffe17 	ldw	r2,-8(fp)
     230:	11000017 	ldw	r4,0(r2)
     234:	e17ffd17 	ldw	r5,-12(fp)
     238:	e0bffe17 	ldw	r2,-8(fp)
     23c:	10c00117 	ldw	r3,4(r2)
     240:	e0bffd17 	ldw	r2,-12(fp)
     244:	1885883a 	add	r2,r3,r2
     248:	10800084 	addi	r2,r2,2
     24c:	10c00003 	ldbu	r3,0(r2)
     250:	2145883a 	add	r2,r4,r5
     254:	10c00005 	stb	r3,0(r2)

int bmp_extract_header(Bmp_data *pic_data) {
	int i;

	if (pic_data->buffer[0] == 'B' && pic_data->buffer[1] == 'M') {
		for (i = 0; i < 52; i++) {
     258:	e0bffd17 	ldw	r2,-12(fp)
     25c:	10800044 	addi	r2,r2,1
     260:	e0bffd15 	stw	r2,-12(fp)
     264:	e0bffd17 	ldw	r2,-12(fp)
     268:	10800d10 	cmplti	r2,r2,52
     26c:	103fef1e 	bne	r2,zero,22c <bmp_extract_header+0x5c>
			pic_data->header->BMPRawData[i] = pic_data->buffer[i + 2];
		}

		// Calculate the effective size of the data field
		pic_data->header->BMPDataSize = pic_data->header->BMPHeight * pic_data->header->BMPWidth
     270:	e0bffe17 	ldw	r2,-8(fp)
     274:	11000017 	ldw	r4,0(r2)
     278:	e0bffe17 	ldw	r2,-8(fp)
     27c:	10800017 	ldw	r2,0(r2)
     280:	10c00517 	ldw	r3,20(r2)
     284:	e0bffe17 	ldw	r2,-8(fp)
     288:	10800017 	ldw	r2,0(r2)
     28c:	10800417 	ldw	r2,16(r2)
     290:	1887383a 	mul	r3,r3,r2
     294:	e0bffe17 	ldw	r2,-8(fp)
     298:	10800017 	ldw	r2,0(r2)
     29c:	1080068b 	ldhu	r2,26(r2)
     2a0:	10bfffcc 	andi	r2,r2,65535
     2a4:	1004d0fa 	srli	r2,r2,3
     2a8:	10bfffcc 	andi	r2,r2,65535
     2ac:	1885383a 	mul	r2,r3,r2
     2b0:	20800815 	stw	r2,32(r4)
				* (pic_data->header->BMPBitsPerPixel / 8);

		pic_data->bitmap = &pic_data->buffer[pic_data->header->BMPDataOffset];
     2b4:	e0bffe17 	ldw	r2,-8(fp)
     2b8:	10c00117 	ldw	r3,4(r2)
     2bc:	e0bffe17 	ldw	r2,-8(fp)
     2c0:	10800017 	ldw	r2,0(r2)
     2c4:	10800217 	ldw	r2,8(r2)
     2c8:	1887883a 	add	r3,r3,r2
     2cc:	e0bffe17 	ldw	r2,-8(fp)
     2d0:	10c00215 	stw	r3,8(r2)
		return 1;
     2d4:	00800044 	movi	r2,1
     2d8:	e0bfff15 	stw	r2,-4(fp)
     2dc:	00000106 	br	2e4 <bmp_extract_header+0x114>
	}
	return 0;
     2e0:	e03fff15 	stw	zero,-4(fp)
     2e4:	e0bfff17 	ldw	r2,-4(fp)
}
     2e8:	e037883a 	mov	sp,fp
     2ec:	df000017 	ldw	fp,0(sp)
     2f0:	dec00104 	addi	sp,sp,4
     2f4:	f800283a 	ret

000002f8 <bmp_rearrange_comps>:

void bmp_rearrange_comps(Bmp_data *pic_data) {
     2f8:	defff904 	addi	sp,sp,-28
     2fc:	df000615 	stw	fp,24(sp)
     300:	df000604 	addi	fp,sp,24
     304:	e13fff15 	stw	r4,-4(fp)
	int row, column;
	int8_t r, g, b, *row_ptr, *dest;

	// <*dest> starts from the top left of the image and moves downwards.
	// <*row_ptr> starts from the bottom left of the image and moves upwards.
	dest = pic_data->bitmap;
     308:	e0bfff17 	ldw	r2,-4(fp)
     30c:	10800217 	ldw	r2,8(r2)
     310:	e0bffa15 	stw	r2,-24(fp)

	for (row = pic_data->header->BMPHeight - 1; row >= pic_data->header->BMPHeight / 2; row--) {
     314:	e0bfff17 	ldw	r2,-4(fp)
     318:	10800017 	ldw	r2,0(r2)
     31c:	10800517 	ldw	r2,20(r2)
     320:	10bfffc4 	addi	r2,r2,-1
     324:	e0bffe15 	stw	r2,-8(fp)
     328:	00005706 	br	488 <bmp_rearrange_comps+0x190>
		// We loop until <*dest> and <*row_ptr> meet in the middle of the image.

		row_ptr = &(pic_data->bitmap[row * pic_data->header->BMPWidth * 3]);
     32c:	e0bfff17 	ldw	r2,-4(fp)
     330:	11000217 	ldw	r4,8(r2)
     334:	e0bfff17 	ldw	r2,-4(fp)
     338:	10800017 	ldw	r2,0(r2)
     33c:	10c00417 	ldw	r3,16(r2)
     340:	e0bffe17 	ldw	r2,-8(fp)
     344:	1887383a 	mul	r3,r3,r2
     348:	1805883a 	mov	r2,r3
     34c:	1085883a 	add	r2,r2,r2
     350:	10c5883a 	add	r2,r2,r3
     354:	2085883a 	add	r2,r4,r2
     358:	e0bffb15 	stw	r2,-20(fp)
		for (column = 0; column < pic_data->header->BMPWidth * 3; column += 3) {
     35c:	e03ffd15 	stw	zero,-12(fp)
     360:	00003e06 	br	45c <bmp_rearrange_comps+0x164>
			// Not only do we move data from <*dest> to <*row_ptr> and vice-versa,
			// we also need to reshuffle RGB components.
			r = dest[2];
     364:	e0bffa17 	ldw	r2,-24(fp)
     368:	10800084 	addi	r2,r2,2
     36c:	10800003 	ldbu	r2,0(r2)
     370:	e0bffc85 	stb	r2,-14(fp)
			g = dest[1];
     374:	e0bffa17 	ldw	r2,-24(fp)
     378:	10800044 	addi	r2,r2,1
     37c:	10800003 	ldbu	r2,0(r2)
     380:	e0bffc45 	stb	r2,-15(fp)
			b = dest[0];
     384:	e0bffa17 	ldw	r2,-24(fp)
     388:	10800003 	ldbu	r2,0(r2)
     38c:	e0bffc05 	stb	r2,-16(fp)

			*dest++ = row_ptr[column + 2];
     390:	e0fffd17 	ldw	r3,-12(fp)
     394:	e0bffb17 	ldw	r2,-20(fp)
     398:	1885883a 	add	r2,r3,r2
     39c:	10800084 	addi	r2,r2,2
     3a0:	10c00003 	ldbu	r3,0(r2)
     3a4:	e0bffa17 	ldw	r2,-24(fp)
     3a8:	10c00005 	stb	r3,0(r2)
     3ac:	e0bffa17 	ldw	r2,-24(fp)
     3b0:	10800044 	addi	r2,r2,1
     3b4:	e0bffa15 	stw	r2,-24(fp)
			*dest++ = row_ptr[column + 1];
     3b8:	e0fffd17 	ldw	r3,-12(fp)
     3bc:	e0bffb17 	ldw	r2,-20(fp)
     3c0:	1885883a 	add	r2,r3,r2
     3c4:	10800044 	addi	r2,r2,1
     3c8:	10c00003 	ldbu	r3,0(r2)
     3cc:	e0bffa17 	ldw	r2,-24(fp)
     3d0:	10c00005 	stb	r3,0(r2)
     3d4:	e0bffa17 	ldw	r2,-24(fp)
     3d8:	10800044 	addi	r2,r2,1
     3dc:	e0bffa15 	stw	r2,-24(fp)
			*dest++ = row_ptr[column];
     3e0:	e0bffd17 	ldw	r2,-12(fp)
     3e4:	1007883a 	mov	r3,r2
     3e8:	e0bffb17 	ldw	r2,-20(fp)
     3ec:	1885883a 	add	r2,r3,r2
     3f0:	10c00003 	ldbu	r3,0(r2)
     3f4:	e0bffa17 	ldw	r2,-24(fp)
     3f8:	10c00005 	stb	r3,0(r2)
     3fc:	e0bffa17 	ldw	r2,-24(fp)
     400:	10800044 	addi	r2,r2,1
     404:	e0bffa15 	stw	r2,-24(fp)

			row_ptr[column] = r;
     408:	e0bffd17 	ldw	r2,-12(fp)
     40c:	1007883a 	mov	r3,r2
     410:	e0bffb17 	ldw	r2,-20(fp)
     414:	1887883a 	add	r3,r3,r2
     418:	e0bffc83 	ldbu	r2,-14(fp)
     41c:	18800005 	stb	r2,0(r3)
			row_ptr[column + 1] = g;
     420:	e0fffd17 	ldw	r3,-12(fp)
     424:	e0bffb17 	ldw	r2,-20(fp)
     428:	1885883a 	add	r2,r3,r2
     42c:	10c00044 	addi	r3,r2,1
     430:	e0bffc43 	ldbu	r2,-15(fp)
     434:	18800005 	stb	r2,0(r3)
			row_ptr[column + 2] = b;
     438:	e0fffd17 	ldw	r3,-12(fp)
     43c:	e0bffb17 	ldw	r2,-20(fp)
     440:	1885883a 	add	r2,r3,r2
     444:	10c00084 	addi	r3,r2,2
     448:	e0bffc03 	ldbu	r2,-16(fp)
     44c:	18800005 	stb	r2,0(r3)

	for (row = pic_data->header->BMPHeight - 1; row >= pic_data->header->BMPHeight / 2; row--) {
		// We loop until <*dest> and <*row_ptr> meet in the middle of the image.

		row_ptr = &(pic_data->bitmap[row * pic_data->header->BMPWidth * 3]);
		for (column = 0; column < pic_data->header->BMPWidth * 3; column += 3) {
     450:	e0bffd17 	ldw	r2,-12(fp)
     454:	108000c4 	addi	r2,r2,3
     458:	e0bffd15 	stw	r2,-12(fp)
     45c:	e13ffd17 	ldw	r4,-12(fp)
     460:	e0bfff17 	ldw	r2,-4(fp)
     464:	10800017 	ldw	r2,0(r2)
     468:	10c00417 	ldw	r3,16(r2)
     46c:	1805883a 	mov	r2,r3
     470:	1085883a 	add	r2,r2,r2
     474:	10c5883a 	add	r2,r2,r3
     478:	20bfba36 	bltu	r4,r2,364 <bmp_rearrange_comps+0x6c>

	// <*dest> starts from the top left of the image and moves downwards.
	// <*row_ptr> starts from the bottom left of the image and moves upwards.
	dest = pic_data->bitmap;

	for (row = pic_data->header->BMPHeight - 1; row >= pic_data->header->BMPHeight / 2; row--) {
     47c:	e0bffe17 	ldw	r2,-8(fp)
     480:	10bfffc4 	addi	r2,r2,-1
     484:	e0bffe15 	stw	r2,-8(fp)
     488:	e0fffe17 	ldw	r3,-8(fp)
     48c:	e0bfff17 	ldw	r2,-4(fp)
     490:	10800017 	ldw	r2,0(r2)
     494:	10800517 	ldw	r2,20(r2)
     498:	1004d07a 	srli	r2,r2,1
     49c:	18bfa32e 	bgeu	r3,r2,32c <bmp_rearrange_comps+0x34>
			row_ptr[column] = r;
			row_ptr[column + 1] = g;
			row_ptr[column + 2] = b;
		}
	}
}
     4a0:	e037883a 	mov	sp,fp
     4a4:	df000017 	ldw	fp,0(sp)
     4a8:	dec00104 	addi	sp,sp,4
     4ac:	f800283a 	ret

000004b0 <bmp_extract>:

int bmp_extract(char *file_name, Bmp_data *pic_data) {
     4b0:	defff804 	addi	sp,sp,-32
     4b4:	dfc00715 	stw	ra,28(sp)
     4b8:	df000615 	stw	fp,24(sp)
     4bc:	df000604 	addi	fp,sp,24
     4c0:	e13ffd15 	stw	r4,-12(fp)
     4c4:	e17ffe15 	stw	r5,-8(fp)
	FILE *bmp_file = NULL;
     4c8:	e03ffc15 	stw	zero,-16(fp)
	int bmp_file_size, bytes_read;

	bmp_file = fopen(file_name, "rb");
     4cc:	e13ffd17 	ldw	r4,-12(fp)
     4d0:	01400134 	movhi	r5,4
     4d4:	2978f904 	addi	r5,r5,-7196
     4d8:	002c9d40 	call	2c9d4 <fopen>
     4dc:	e0bffc15 	stw	r2,-16(fp)
	if(bmp_file == NULL) {
     4e0:	e0bffc17 	ldw	r2,-16(fp)
     4e4:	1004c03a 	cmpne	r2,r2,zero
     4e8:	1000071e 	bne	r2,zero,508 <bmp_extract+0x58>
		printf("Error opening the file %s\n", file_name);
     4ec:	01000134 	movhi	r4,4
     4f0:	2138fa04 	addi	r4,r4,-7192
     4f4:	e17ffd17 	ldw	r5,-12(fp)
     4f8:	002e5240 	call	2e524 <printf>
		return 1;
     4fc:	00800044 	movi	r2,1
     500:	e0bfff15 	stw	r2,-4(fp)
     504:	00004a06 	br	630 <bmp_extract+0x180>
	}

	// Get the size of the file
	fseek(bmp_file, 0, SEEK_END);
     508:	e13ffc17 	ldw	r4,-16(fp)
     50c:	000b883a 	mov	r5,zero
     510:	01800084 	movi	r6,2
     514:	002d5080 	call	2d508 <fseek>
	bmp_file_size = ftell(bmp_file);
     518:	e13ffc17 	ldw	r4,-16(fp)
     51c:	002d6980 	call	2d698 <ftell>
     520:	e0bffb15 	stw	r2,-20(fp)
	rewind(bmp_file);
     524:	e13ffc17 	ldw	r4,-16(fp)
     528:	002e8680 	call	2e868 <rewind>

	pic_data->buffer = g_file_buffer;		// (int8_t *)malloc(bmp_file_size);
     52c:	e0fffe17 	ldw	r3,-8(fp)
     530:	00800134 	movhi	r2,4
     534:	1090ec04 	addi	r2,r2,17328
     538:	18800115 	stw	r2,4(r3)

	// Read the whole file into the buffer
	bytes_read = fread((void *)pic_data->buffer, sizeof(int8_t), bmp_file_size, bmp_file);
     53c:	e0bffe17 	ldw	r2,-8(fp)
     540:	11000117 	ldw	r4,4(r2)
     544:	e1bffb17 	ldw	r6,-20(fp)
     548:	01400044 	movi	r5,1
     54c:	e1fffc17 	ldw	r7,-16(fp)
     550:	002cc4c0 	call	2cc4c <fread>
     554:	e0bffa15 	stw	r2,-24(fp)

	fclose(bmp_file);
     558:	e13ffc17 	ldw	r4,-16(fp)
     55c:	002c3dc0 	call	2c3dc <fclose>

	if(bytes_read != bmp_file_size)
     560:	e0fffa17 	ldw	r3,-24(fp)
     564:	e0bffb17 	ldw	r2,-20(fp)
     568:	18800626 	beq	r3,r2,584 <bmp_extract+0xd4>
	{
		printf("Error occurred while reading the file\n\n");
     56c:	01000134 	movhi	r4,4
     570:	21390104 	addi	r4,r4,-7164
     574:	002e63c0 	call	2e63c <puts>
		return 2;
     578:	00800084 	movi	r2,2
     57c:	e0bfff15 	stw	r2,-4(fp)
     580:	00002b06 	br	630 <bmp_extract+0x180>
	}

	pic_data->header = &g_input_file_header;	// (Bmp_header *)malloc(sizeof(Bmp_header));
     584:	e0fffe17 	ldw	r3,-8(fp)
     588:	00800134 	movhi	r2,4
     58c:	1090df04 	addi	r2,r2,17276
     590:	18800015 	stw	r2,0(r3)

	bmp_extract_header(pic_data);
     594:	e13ffe17 	ldw	r4,-8(fp)
     598:	00001d00 	call	1d0 <bmp_extract_header>
	bmp_rearrange_comps(pic_data);
     59c:	e13ffe17 	ldw	r4,-8(fp)
     5a0:	00002f80 	call	2f8 <bmp_rearrange_comps>

	printf("Size of the file: %d\n", (int)pic_data->header->BMPFileSize);
     5a4:	e0bffe17 	ldw	r2,-8(fp)
     5a8:	10800017 	ldw	r2,0(r2)
     5ac:	10800017 	ldw	r2,0(r2)
     5b0:	100b883a 	mov	r5,r2
     5b4:	01000134 	movhi	r4,4
     5b8:	21390b04 	addi	r4,r4,-7124
     5bc:	002e5240 	call	2e524 <printf>
	printf("Size of the height: %d\n", (int)pic_data->header->BMPHeight);
     5c0:	e0bffe17 	ldw	r2,-8(fp)
     5c4:	10800017 	ldw	r2,0(r2)
     5c8:	10800517 	ldw	r2,20(r2)
     5cc:	100b883a 	mov	r5,r2
     5d0:	01000134 	movhi	r4,4
     5d4:	21391104 	addi	r4,r4,-7100
     5d8:	002e5240 	call	2e524 <printf>
	printf("Size of the width: %d\n", (int)pic_data->header->BMPWidth);
     5dc:	e0bffe17 	ldw	r2,-8(fp)
     5e0:	10800017 	ldw	r2,0(r2)
     5e4:	10800417 	ldw	r2,16(r2)
     5e8:	100b883a 	mov	r5,r2
     5ec:	01000134 	movhi	r4,4
     5f0:	21391704 	addi	r4,r4,-7076
     5f4:	002e5240 	call	2e524 <printf>
	printf("Size of the offset: %d\n", (int)pic_data->header->BMPDataOffset);
     5f8:	e0bffe17 	ldw	r2,-8(fp)
     5fc:	10800017 	ldw	r2,0(r2)
     600:	10800217 	ldw	r2,8(r2)
     604:	100b883a 	mov	r5,r2
     608:	01000134 	movhi	r4,4
     60c:	21391d04 	addi	r4,r4,-7052
     610:	002e5240 	call	2e524 <printf>
	printf("Data pointer: 0x%08x\n\n", (unsigned int)pic_data->bitmap);
     614:	e0bffe17 	ldw	r2,-8(fp)
     618:	10800217 	ldw	r2,8(r2)
     61c:	100b883a 	mov	r5,r2
     620:	01000134 	movhi	r4,4
     624:	21392304 	addi	r4,r4,-7028
     628:	002e5240 	call	2e524 <printf>

	return 0;
     62c:	e03fff15 	stw	zero,-4(fp)
     630:	e0bfff17 	ldw	r2,-4(fp)
}
     634:	e037883a 	mov	sp,fp
     638:	dfc00117 	ldw	ra,4(sp)
     63c:	df000017 	ldw	fp,0(sp)
     640:	dec00204 	addi	sp,sp,8
     644:	f800283a 	ret

00000648 <jpeg_encode>:

#include "jpeg_encoding.h"


int jpeg_encode(char *destFilename, int8_t *rawData, int image_height, int image_width, int quality)
{
     648:	deff6f04 	addi	sp,sp,-580
     64c:	dfc09015 	stw	ra,576(sp)
     650:	df008f15 	stw	fp,572(sp)
     654:	df008f04 	addi	fp,sp,572
     658:	e13ffc15 	stw	r4,-16(fp)
     65c:	e17ffd15 	stw	r5,-12(fp)
     660:	e1bffe15 	stw	r6,-8(fp)
     664:	e1ffff15 	stw	r7,-4(fp)
	/* We have to set up the error handler first, in case the initialization
	* step fails.  (Unlikely, but it could happen if you are out of memory.)
	* This routine fills in the contents of struct jerr, and returns jerr's
	* address which we place into the link field in cinfo.
	*/
	cinfo.err = jpeg_std_error(&jerr);
     668:	e13fda04 	addi	r4,fp,-152
     66c:	00124f80 	call	124f8 <jpeg_std_error>
     670:	e0bf7315 	stw	r2,-564(fp)
	/* Now we can initialize the JPEG compression object. */
	jpeg_create_compress(&cinfo);
     674:	e13f7304 	addi	r4,fp,-564
     678:	01401404 	movi	r5,80
     67c:	01806704 	movi	r6,412
     680:	00009740 	call	974 <jpeg_CreateCompress>
	/* Here we use the library-supplied code to send compressed data to a
	* stdio stream.  You can also write your own code to do something else.
	* VERY IMPORTANT: use "b" option to fopen() if you are on a machine that
	* requires it in order to write binary files.
	*/
	if ((outfile = fopen(destFilename, "w")) == NULL) {
     684:	e13ffc17 	ldw	r4,-16(fp)
     688:	01400134 	movhi	r5,4
     68c:	29792904 	addi	r5,r5,-7004
     690:	002c9d40 	call	2c9d4 <fopen>
     694:	e0bf7215 	stw	r2,-568(fp)
     698:	e0bf7217 	ldw	r2,-568(fp)
     69c:	1004c03a 	cmpne	r2,r2,zero
     6a0:	10000a1e 	bne	r2,zero,6cc <jpeg_encode+0x84>
		fprintf(stderr, "can't open %s\n", destFilename);
     6a4:	00800134 	movhi	r2,4
     6a8:	1089e104 	addi	r2,r2,10116
     6ac:	10800017 	ldw	r2,0(r2)
     6b0:	11000317 	ldw	r4,12(r2)
     6b4:	01400134 	movhi	r5,4
     6b8:	29792a04 	addi	r5,r5,-7000
     6bc:	e1bffc17 	ldw	r6,-16(fp)
     6c0:	002c9f00 	call	2c9f0 <fprintf>
		exit(1);
     6c4:	01000044 	movi	r4,1
     6c8:	002c2940 	call	2c294 <exit>
	}
	jpeg_stdio_dest(&cinfo, outfile);
     6cc:	e13f7304 	addi	r4,fp,-564
     6d0:	e17f7217 	ldw	r5,-568(fp)
     6d4:	0011eec0 	call	11eec <jpeg_stdio_dest>
	/* Step 3: set parameters for compression */

	/* First we supply a description of the input image.
	* Four fields of the cinfo struct must be filled in:
	*/
	cinfo.image_width = image_width; 	/* image width and height, in pixels */
     6d8:	e0bfff17 	ldw	r2,-4(fp)
     6dc:	e0bf7a15 	stw	r2,-536(fp)
	cinfo.image_height = image_height;
     6e0:	e0bffe17 	ldw	r2,-8(fp)
     6e4:	e0bf7b15 	stw	r2,-532(fp)
	cinfo.input_components = 3;		/* # of color components per pixel */
     6e8:	008000c4 	movi	r2,3
     6ec:	e0bf7c15 	stw	r2,-528(fp)
	cinfo.in_color_space = JCS_RGB; 	/* colorspace of input image */
     6f0:	00800084 	movi	r2,2
     6f4:	e0bf7d15 	stw	r2,-524(fp)
	/* Now use the library's routine to set default compression parameters.
	* (You must set at least cinfo.in_color_space before calling this,
	* since the defaults depend on the source color space.)
	*/
	jpeg_set_defaults(&cinfo);
     6f8:	e13f7304 	addi	r4,fp,-564
     6fc:	000dd400 	call	dd40 <jpeg_set_defaults>
	/* Now you can set any non-default parameters you wish to.
	* Here we just illustrate the use of quality (quantization table) scaling:
	*/
	jpeg_set_quality(&cinfo, quality, TRUE /* limit to baseline-JPEG values */);
     700:	e13f7304 	addi	r4,fp,-564
     704:	e1400217 	ldw	r5,8(fp)
     708:	01800044 	movi	r6,1
     70c:	000db1c0 	call	db1c <jpeg_set_quality>
	/* Step 4: Start compressor */

	/* TRUE ensures that we will write a complete interchange-JPEG file.
	* Pass TRUE unless you are very sure of what you're doing.
	*/
	jpeg_start_compress(&cinfo, TRUE);
     710:	e13f7304 	addi	r4,fp,-564
     714:	01400044 	movi	r5,1
     718:	00012140 	call	1214 <jpeg_start_compress>
	/* Here we use the library's state variable cinfo.next_scanline as the
	* loop counter, so that we don't have to keep track ourselves.
	* To keep things simple, we pass one scanline per call; you can pass
	* more if you wish, though.
	*/
	row_stride = image_width * 3;	/* JSAMPLEs per row in image_buffer */
     71c:	e0ffff17 	ldw	r3,-4(fp)
     720:	1805883a 	mov	r2,r3
     724:	1085883a 	add	r2,r2,r2
     728:	10c5883a 	add	r2,r2,r3
     72c:	e0bf7115 	stw	r2,-572(fp)

	while (cinfo.next_scanline < cinfo.image_height) {
     730:	00000b06 	br	760 <jpeg_encode+0x118>
		/* jpeg_write_scanlines expects an array of pointers to scanlines.
		* Here the array is only one element long, but you could pass
		* more than one scanline at a time if that's more convenient.
		*/
		row_pointer[0] = (JSAMPLE *)&rawData[cinfo.next_scanline * row_stride];
     734:	e0ffaf17 	ldw	r3,-324(fp)
     738:	e0bf7117 	ldw	r2,-572(fp)
     73c:	1885383a 	mul	r2,r3,r2
     740:	1007883a 	mov	r3,r2
     744:	e0bffd17 	ldw	r2,-12(fp)
     748:	1885883a 	add	r2,r3,r2
     74c:	e0bffb15 	stw	r2,-20(fp)
		(void) jpeg_write_scanlines(&cinfo, row_pointer, 1);
     750:	e13f7304 	addi	r4,fp,-564
     754:	e17ffb04 	addi	r5,fp,-20
     758:	01800044 	movi	r6,1
     75c:	00013200 	call	1320 <jpeg_write_scanlines>
	* To keep things simple, we pass one scanline per call; you can pass
	* more if you wish, though.
	*/
	row_stride = image_width * 3;	/* JSAMPLEs per row in image_buffer */

	while (cinfo.next_scanline < cinfo.image_height) {
     760:	e0ffaf17 	ldw	r3,-324(fp)
     764:	e0bf7b17 	ldw	r2,-532(fp)
     768:	18bff236 	bltu	r3,r2,734 <jpeg_encode+0xec>
		(void) jpeg_write_scanlines(&cinfo, row_pointer, 1);
	}

	/* Step 6: Finish compression */

	jpeg_finish_compress(&cinfo);
     76c:	e13f7304 	addi	r4,fp,-564
     770:	0000d240 	call	d24 <jpeg_finish_compress>
	/* After finish_compress, we can close the output file. */
	fclose(outfile);
     774:	e13f7217 	ldw	r4,-568(fp)
     778:	002c3dc0 	call	2c3dc <fclose>

	/* Step 7: release JPEG compression object */

	/* This is an important step since it will release a good deal of memory. */
	jpeg_destroy_compress(&cinfo);
     77c:	e13f7304 	addi	r4,fp,-564
     780:	0000bb80 	call	bb8 <jpeg_destroy_compress>

	/* And we're done! */
	return 0;
     784:	0005883a 	mov	r2,zero
}
     788:	e037883a 	mov	sp,fp
     78c:	dfc00117 	ldw	ra,4(sp)
     790:	df000017 	ldw	fp,0(sp)
     794:	dec00204 	addi	sp,sp,8
     798:	f800283a 	ret

0000079c <keymatch>:
* minchars is length of minimum legal abbreviation.
*/

GLOBAL(boolean)
	keymatch (char * arg, const char * keyword, int minchars)
{
     79c:	defff604 	addi	sp,sp,-40
     7a0:	df000915 	stw	fp,36(sp)
     7a4:	df000904 	addi	fp,sp,36
     7a8:	e13ff815 	stw	r4,-32(fp)
     7ac:	e17ff915 	stw	r5,-28(fp)
     7b0:	e1bffa15 	stw	r6,-24(fp)
	register int ca, ck;
	register int nmatched = 0;
     7b4:	e03ffb15 	stw	zero,-20(fp)

	while ((ca = *arg++) != '\0') {
     7b8:	00003906 	br	8a0 <keymatch+0x104>
		if ((ck = *keyword++) == '\0')
     7bc:	e0bff917 	ldw	r2,-28(fp)
     7c0:	10800003 	ldbu	r2,0(r2)
     7c4:	10803fcc 	andi	r2,r2,255
     7c8:	1080201c 	xori	r2,r2,128
     7cc:	10bfe004 	addi	r2,r2,-128
     7d0:	e0bffc15 	stw	r2,-16(fp)
     7d4:	e0fffc17 	ldw	r3,-16(fp)
     7d8:	1805003a 	cmpeq	r2,r3,zero
     7dc:	1007883a 	mov	r3,r2
     7e0:	e0bff917 	ldw	r2,-28(fp)
     7e4:	10800044 	addi	r2,r2,1
     7e8:	e0bff915 	stw	r2,-28(fp)
     7ec:	18803fcc 	andi	r2,r3,255
     7f0:	1005003a 	cmpeq	r2,r2,zero
     7f4:	1000021e 	bne	r2,zero,800 <keymatch+0x64>
			return FALSE;		/* arg longer than keyword, no good */
     7f8:	e03fff15 	stw	zero,-4(fp)
     7fc:	00003e06 	br	8f8 <keymatch+0x15c>
		if (isupper(ca))		/* force arg to lcase (assume ck is already) */
     800:	00800134 	movhi	r2,4
     804:	1089e004 	addi	r2,r2,10112
     808:	10c00017 	ldw	r3,0(r2)
     80c:	e0bffd17 	ldw	r2,-12(fp)
     810:	1885883a 	add	r2,r3,r2
     814:	10800003 	ldbu	r2,0(r2)
     818:	10803fcc 	andi	r2,r2,255
     81c:	1080004c 	andi	r2,r2,1
     820:	10803fcc 	andi	r2,r2,255
     824:	1005003a 	cmpeq	r2,r2,zero
     828:	1000151e 	bne	r2,zero,880 <keymatch+0xe4>
			ca = tolower(ca);
     82c:	e0bffd17 	ldw	r2,-12(fp)
     830:	e0bff715 	stw	r2,-36(fp)
     834:	00800134 	movhi	r2,4
     838:	1089e004 	addi	r2,r2,10112
     83c:	10c00017 	ldw	r3,0(r2)
     840:	e0bff717 	ldw	r2,-36(fp)
     844:	1885883a 	add	r2,r3,r2
     848:	10800003 	ldbu	r2,0(r2)
     84c:	10803fcc 	andi	r2,r2,255
     850:	1080004c 	andi	r2,r2,1
     854:	10803fcc 	andi	r2,r2,255
     858:	1005003a 	cmpeq	r2,r2,zero
     85c:	1000041e 	bne	r2,zero,870 <keymatch+0xd4>
     860:	e0bff717 	ldw	r2,-36(fp)
     864:	10800804 	addi	r2,r2,32
     868:	e0bffe15 	stw	r2,-8(fp)
     86c:	00000206 	br	878 <keymatch+0xdc>
     870:	e0fff717 	ldw	r3,-36(fp)
     874:	e0fffe15 	stw	r3,-8(fp)
     878:	e0bffe17 	ldw	r2,-8(fp)
     87c:	e0bffd15 	stw	r2,-12(fp)
		if (ca != ck)
     880:	e0bffd17 	ldw	r2,-12(fp)
     884:	e0fffc17 	ldw	r3,-16(fp)
     888:	10c00226 	beq	r2,r3,894 <keymatch+0xf8>
			return FALSE;		/* no good */
     88c:	e03fff15 	stw	zero,-4(fp)
     890:	00001906 	br	8f8 <keymatch+0x15c>
		nmatched++;			/* count matched characters */
     894:	e0bffb17 	ldw	r2,-20(fp)
     898:	10800044 	addi	r2,r2,1
     89c:	e0bffb15 	stw	r2,-20(fp)
	keymatch (char * arg, const char * keyword, int minchars)
{
	register int ca, ck;
	register int nmatched = 0;

	while ((ca = *arg++) != '\0') {
     8a0:	e0bff817 	ldw	r2,-32(fp)
     8a4:	10800003 	ldbu	r2,0(r2)
     8a8:	10803fcc 	andi	r2,r2,255
     8ac:	1080201c 	xori	r2,r2,128
     8b0:	10bfe004 	addi	r2,r2,-128
     8b4:	e0bffd15 	stw	r2,-12(fp)
     8b8:	e0fffd17 	ldw	r3,-12(fp)
     8bc:	1804c03a 	cmpne	r2,r3,zero
     8c0:	1007883a 	mov	r3,r2
     8c4:	e0bff817 	ldw	r2,-32(fp)
     8c8:	10800044 	addi	r2,r2,1
     8cc:	e0bff815 	stw	r2,-32(fp)
     8d0:	18803fcc 	andi	r2,r3,255
     8d4:	1004c03a 	cmpne	r2,r2,zero
     8d8:	103fb81e 	bne	r2,zero,7bc <keymatch+0x20>
		if (ca != ck)
			return FALSE;		/* no good */
		nmatched++;			/* count matched characters */
	}
	/* reached end of argument; fail if it's too short for unique abbrev */
	if (nmatched < minchars)
     8dc:	e0bffa17 	ldw	r2,-24(fp)
     8e0:	e0fffb17 	ldw	r3,-20(fp)
     8e4:	1880020e 	bge	r3,r2,8f0 <keymatch+0x154>
		return FALSE;
     8e8:	e03fff15 	stw	zero,-4(fp)
     8ec:	00000206 	br	8f8 <keymatch+0x15c>
	return TRUE;			/* A-OK */
     8f0:	00800044 	movi	r2,1
     8f4:	e0bfff15 	stw	r2,-4(fp)
     8f8:	e0bfff17 	ldw	r2,-4(fp)
}
     8fc:	e037883a 	mov	sp,fp
     900:	df000017 	ldw	fp,0(sp)
     904:	dec00104 	addi	sp,sp,4
     908:	f800283a 	ret

0000090c <read_stdin>:
* Non-Unix systems often require some hacking to get out of text mode.
*/

GLOBAL(FILE *)
	read_stdin (void)
{
     90c:	defffe04 	addi	sp,sp,-8
     910:	df000115 	stw	fp,4(sp)
     914:	df000104 	addi	fp,sp,4
	FILE * input_file = stdin;
     918:	00800134 	movhi	r2,4
     91c:	1089e104 	addi	r2,r2,10116
     920:	10800017 	ldw	r2,0(r2)
     924:	10800117 	ldw	r2,4(r2)
     928:	e0bfff15 	stw	r2,-4(fp)
	if ((input_file = fdopen(fileno(stdin), READ_BINARY)) == NULL) {
		fprintf(stderr, "Cannot reopen stdin\n");
		exit(EXIT_FAILURE);
	}
#endif
	return input_file;
     92c:	e0bfff17 	ldw	r2,-4(fp)
}
     930:	e037883a 	mov	sp,fp
     934:	df000017 	ldw	fp,0(sp)
     938:	dec00104 	addi	sp,sp,4
     93c:	f800283a 	ret

00000940 <write_stdout>:


GLOBAL(FILE *)
	write_stdout (void)
{
     940:	defffe04 	addi	sp,sp,-8
     944:	df000115 	stw	fp,4(sp)
     948:	df000104 	addi	fp,sp,4
	FILE * output_file = stdout;
     94c:	00800134 	movhi	r2,4
     950:	1089e104 	addi	r2,r2,10116
     954:	10800017 	ldw	r2,0(r2)
     958:	10800217 	ldw	r2,8(r2)
     95c:	e0bfff15 	stw	r2,-4(fp)
	if ((output_file = fdopen(fileno(stdout), WRITE_BINARY)) == NULL) {
		fprintf(stderr, "Cannot reopen stdout\n");
		exit(EXIT_FAILURE);
	}
#endif
	return output_file;
     960:	e0bfff17 	ldw	r2,-4(fp)
}
     964:	e037883a 	mov	sp,fp
     968:	df000017 	ldw	fp,0(sp)
     96c:	dec00104 	addi	sp,sp,4
     970:	f800283a 	ret

00000974 <jpeg_CreateCompress>:
* The error manager must already be set up (in case memory manager fails).
*/

GLOBAL(void)
	jpeg_CreateCompress (j_compress_ptr cinfo, int version, size_t structsize)
{
     974:	defff804 	addi	sp,sp,-32
     978:	dfc00715 	stw	ra,28(sp)
     97c:	df000615 	stw	fp,24(sp)
     980:	df000604 	addi	fp,sp,24
     984:	e13ffd15 	stw	r4,-12(fp)
     988:	e17ffe15 	stw	r5,-8(fp)
     98c:	e1bfff15 	stw	r6,-4(fp)
	int i;

	/* Guard against version mismatches between library and caller. */
	cinfo->mem = NULL;		/* so jpeg_destroy knows mem mgr not called */
     990:	e0bffd17 	ldw	r2,-12(fp)
     994:	10000115 	stw	zero,4(r2)
	if (version != JPEG_LIB_VERSION)
     998:	e0bffe17 	ldw	r2,-8(fp)
     99c:	10801420 	cmpeqi	r2,r2,80
     9a0:	1000111e 	bne	r2,zero,9e8 <jpeg_CreateCompress+0x74>
		ERREXIT2(cinfo, JERR_BAD_LIB_VERSION, JPEG_LIB_VERSION, version);
     9a4:	e0bffd17 	ldw	r2,-12(fp)
     9a8:	10c00017 	ldw	r3,0(r2)
     9ac:	00800344 	movi	r2,13
     9b0:	18800515 	stw	r2,20(r3)
     9b4:	e0bffd17 	ldw	r2,-12(fp)
     9b8:	10c00017 	ldw	r3,0(r2)
     9bc:	00801404 	movi	r2,80
     9c0:	18800615 	stw	r2,24(r3)
     9c4:	e0bffd17 	ldw	r2,-12(fp)
     9c8:	10c00017 	ldw	r3,0(r2)
     9cc:	e0bffe17 	ldw	r2,-8(fp)
     9d0:	18800715 	stw	r2,28(r3)
     9d4:	e0bffd17 	ldw	r2,-12(fp)
     9d8:	10800017 	ldw	r2,0(r2)
     9dc:	10800017 	ldw	r2,0(r2)
     9e0:	e13ffd17 	ldw	r4,-12(fp)
     9e4:	103ee83a 	callr	r2
	if (structsize != SIZEOF(struct jpeg_compress_struct))
     9e8:	e0bfff17 	ldw	r2,-4(fp)
     9ec:	10806720 	cmpeqi	r2,r2,412
     9f0:	1000111e 	bne	r2,zero,a38 <jpeg_CreateCompress+0xc4>
		ERREXIT2(cinfo, JERR_BAD_STRUCT_SIZE, 
     9f4:	e0bffd17 	ldw	r2,-12(fp)
     9f8:	10c00017 	ldw	r3,0(r2)
     9fc:	00800584 	movi	r2,22
     a00:	18800515 	stw	r2,20(r3)
     a04:	e0bffd17 	ldw	r2,-12(fp)
     a08:	10c00017 	ldw	r3,0(r2)
     a0c:	00806704 	movi	r2,412
     a10:	18800615 	stw	r2,24(r3)
     a14:	e0bffd17 	ldw	r2,-12(fp)
     a18:	10c00017 	ldw	r3,0(r2)
     a1c:	e0bfff17 	ldw	r2,-4(fp)
     a20:	18800715 	stw	r2,28(r3)
     a24:	e0bffd17 	ldw	r2,-12(fp)
     a28:	10800017 	ldw	r2,0(r2)
     a2c:	10800017 	ldw	r2,0(r2)
     a30:	e13ffd17 	ldw	r4,-12(fp)
     a34:	103ee83a 	callr	r2
	* client_data, so we have to save and restore those fields.
	* Note: if application hasn't set client_data, tools like Purify may
	* complain here.
	*/
	{
		struct jpeg_error_mgr * err = cinfo->err;
     a38:	e0bffd17 	ldw	r2,-12(fp)
     a3c:	10800017 	ldw	r2,0(r2)
     a40:	e0bffb15 	stw	r2,-20(fp)
		void * client_data = cinfo->client_data; /* ignore Purify complaint here */
     a44:	e0bffd17 	ldw	r2,-12(fp)
     a48:	10800317 	ldw	r2,12(r2)
     a4c:	e0bffa15 	stw	r2,-24(fp)
		MEMZERO(cinfo, SIZEOF(struct jpeg_compress_struct));
     a50:	e0bffd17 	ldw	r2,-12(fp)
     a54:	1009883a 	mov	r4,r2
     a58:	01806704 	movi	r6,412
     a5c:	000b883a 	mov	r5,zero
     a60:	002e4140 	call	2e414 <memset>
		cinfo->err = err;
     a64:	e0fffd17 	ldw	r3,-12(fp)
     a68:	e0bffb17 	ldw	r2,-20(fp)
     a6c:	18800015 	stw	r2,0(r3)
		cinfo->client_data = client_data;
     a70:	e0fffd17 	ldw	r3,-12(fp)
     a74:	e0bffa17 	ldw	r2,-24(fp)
     a78:	18800315 	stw	r2,12(r3)
	}
	cinfo->is_decompressor = FALSE;
     a7c:	e0bffd17 	ldw	r2,-12(fp)
     a80:	10000405 	stb	zero,16(r2)

	/* Initialize a memory manager instance for this object */
	jinit_memory_mgr((j_common_ptr) cinfo);
     a84:	e13ffd17 	ldw	r4,-12(fp)
     a88:	002603c0 	call	2603c <jinit_memory_mgr>

	/* Zero out pointers to permanent structures. */
	cinfo->progress = NULL;
     a8c:	e0bffd17 	ldw	r2,-12(fp)
     a90:	10000215 	stw	zero,8(r2)
	cinfo->dest = NULL;
     a94:	e0bffd17 	ldw	r2,-12(fp)
     a98:	10000615 	stw	zero,24(r2)

	cinfo->comp_info = NULL;
     a9c:	e0bffd17 	ldw	r2,-12(fp)
     aa0:	10001415 	stw	zero,80(r2)

	for (i = 0; i < NUM_QUANT_TBLS; i++) {
     aa4:	e03ffc15 	stw	zero,-16(fp)
     aa8:	00001206 	br	af4 <jpeg_CreateCompress+0x180>
		cinfo->quant_tbl_ptrs[i] = NULL;
     aac:	e0bffc17 	ldw	r2,-16(fp)
     ab0:	e0fffd17 	ldw	r3,-12(fp)
     ab4:	1085883a 	add	r2,r2,r2
     ab8:	1085883a 	add	r2,r2,r2
     abc:	10c5883a 	add	r2,r2,r3
     ac0:	10801504 	addi	r2,r2,84
     ac4:	10000015 	stw	zero,0(r2)
		cinfo->q_scale_factor[i] = 100;
     ac8:	e0bffc17 	ldw	r2,-16(fp)
     acc:	e0fffd17 	ldw	r3,-12(fp)
     ad0:	1085883a 	add	r2,r2,r2
     ad4:	1085883a 	add	r2,r2,r2
     ad8:	10c5883a 	add	r2,r2,r3
     adc:	10c01904 	addi	r3,r2,100
     ae0:	00801904 	movi	r2,100
     ae4:	18800015 	stw	r2,0(r3)
	cinfo->progress = NULL;
	cinfo->dest = NULL;

	cinfo->comp_info = NULL;

	for (i = 0; i < NUM_QUANT_TBLS; i++) {
     ae8:	e0bffc17 	ldw	r2,-16(fp)
     aec:	10800044 	addi	r2,r2,1
     af0:	e0bffc15 	stw	r2,-16(fp)
     af4:	e0bffc17 	ldw	r2,-16(fp)
     af8:	10800110 	cmplti	r2,r2,4
     afc:	103feb1e 	bne	r2,zero,aac <jpeg_CreateCompress+0x138>
		cinfo->quant_tbl_ptrs[i] = NULL;
		cinfo->q_scale_factor[i] = 100;
	}

	for (i = 0; i < NUM_HUFF_TBLS; i++) {
     b00:	e03ffc15 	stw	zero,-16(fp)
     b04:	00001106 	br	b4c <jpeg_CreateCompress+0x1d8>
		cinfo->dc_huff_tbl_ptrs[i] = NULL;
     b08:	e0bffc17 	ldw	r2,-16(fp)
     b0c:	e0fffd17 	ldw	r3,-12(fp)
     b10:	1085883a 	add	r2,r2,r2
     b14:	1085883a 	add	r2,r2,r2
     b18:	10c5883a 	add	r2,r2,r3
     b1c:	10801d04 	addi	r2,r2,116
     b20:	10000015 	stw	zero,0(r2)
		cinfo->ac_huff_tbl_ptrs[i] = NULL;
     b24:	e0bffc17 	ldw	r2,-16(fp)
     b28:	e0fffd17 	ldw	r3,-12(fp)
     b2c:	1085883a 	add	r2,r2,r2
     b30:	1085883a 	add	r2,r2,r2
     b34:	10c5883a 	add	r2,r2,r3
     b38:	10802104 	addi	r2,r2,132
     b3c:	10000015 	stw	zero,0(r2)
	for (i = 0; i < NUM_QUANT_TBLS; i++) {
		cinfo->quant_tbl_ptrs[i] = NULL;
		cinfo->q_scale_factor[i] = 100;
	}

	for (i = 0; i < NUM_HUFF_TBLS; i++) {
     b40:	e0bffc17 	ldw	r2,-16(fp)
     b44:	10800044 	addi	r2,r2,1
     b48:	e0bffc15 	stw	r2,-16(fp)
     b4c:	e0bffc17 	ldw	r2,-16(fp)
     b50:	10800110 	cmplti	r2,r2,4
     b54:	103fec1e 	bne	r2,zero,b08 <jpeg_CreateCompress+0x194>
		cinfo->dc_huff_tbl_ptrs[i] = NULL;
		cinfo->ac_huff_tbl_ptrs[i] = NULL;
	}

	/* Must do it here for emit_dqt in case jpeg_write_tables is used */
	cinfo->block_size = DCTSIZE;
     b58:	e0fffd17 	ldw	r3,-12(fp)
     b5c:	00800204 	movi	r2,8
     b60:	18805915 	stw	r2,356(r3)
	cinfo->natural_order = jpeg_natural_order;
     b64:	e0fffd17 	ldw	r3,-12(fp)
     b68:	00800134 	movhi	r2,4
     b6c:	10804504 	addi	r2,r2,276
     b70:	18805a15 	stw	r2,360(r3)
	cinfo->lim_Se = DCTSIZE2-1;
     b74:	e0fffd17 	ldw	r3,-12(fp)
     b78:	00800fc4 	movi	r2,63
     b7c:	18805b15 	stw	r2,364(r3)

	cinfo->script_space = NULL;
     b80:	e0bffd17 	ldw	r2,-12(fp)
     b84:	10006515 	stw	zero,404(r2)

	cinfo->input_gamma = 1.0;	/* in case application forgets */
     b88:	e0fffd17 	ldw	r3,-12(fp)
     b8c:	18000b15 	stw	zero,44(r3)
     b90:	008ffc34 	movhi	r2,16368
     b94:	18800c15 	stw	r2,48(r3)

	/* OK, I'm ready */
	cinfo->global_state = CSTATE_START;
     b98:	e0fffd17 	ldw	r3,-12(fp)
     b9c:	00801904 	movi	r2,100
     ba0:	18800515 	stw	r2,20(r3)
}
     ba4:	e037883a 	mov	sp,fp
     ba8:	dfc00117 	ldw	ra,4(sp)
     bac:	df000017 	ldw	fp,0(sp)
     bb0:	dec00204 	addi	sp,sp,8
     bb4:	f800283a 	ret

00000bb8 <jpeg_destroy_compress>:
* Destruction of a JPEG compression object
*/

GLOBAL(void)
	jpeg_destroy_compress (j_compress_ptr cinfo)
{
     bb8:	defffd04 	addi	sp,sp,-12
     bbc:	dfc00215 	stw	ra,8(sp)
     bc0:	df000115 	stw	fp,4(sp)
     bc4:	df000104 	addi	fp,sp,4
     bc8:	e13fff15 	stw	r4,-4(fp)
	jpeg_destroy((j_common_ptr) cinfo); /* use common routine */
     bcc:	e13fff17 	ldw	r4,-4(fp)
     bd0:	000d6cc0 	call	d6cc <jpeg_destroy>
}
     bd4:	e037883a 	mov	sp,fp
     bd8:	dfc00117 	ldw	ra,4(sp)
     bdc:	df000017 	ldw	fp,0(sp)
     be0:	dec00204 	addi	sp,sp,8
     be4:	f800283a 	ret

00000be8 <jpeg_abort_compress>:
* but don't destroy the object itself.
*/

GLOBAL(void)
	jpeg_abort_compress (j_compress_ptr cinfo)
{
     be8:	defffd04 	addi	sp,sp,-12
     bec:	dfc00215 	stw	ra,8(sp)
     bf0:	df000115 	stw	fp,4(sp)
     bf4:	df000104 	addi	fp,sp,4
     bf8:	e13fff15 	stw	r4,-4(fp)
	jpeg_abort((j_common_ptr) cinfo); /* use common routine */
     bfc:	e13fff17 	ldw	r4,-4(fp)
     c00:	000d6200 	call	d620 <jpeg_abort>
}
     c04:	e037883a 	mov	sp,fp
     c08:	dfc00117 	ldw	ra,4(sp)
     c0c:	df000017 	ldw	fp,0(sp)
     c10:	dec00204 	addi	sp,sp,8
     c14:	f800283a 	ret

00000c18 <jpeg_suppress_tables>:
* jcparam.o would be linked whether the application used it or not.
*/

GLOBAL(void)
	jpeg_suppress_tables (j_compress_ptr cinfo, boolean suppress)
{
     c18:	defffa04 	addi	sp,sp,-24
     c1c:	df000515 	stw	fp,20(sp)
     c20:	df000504 	addi	fp,sp,20
     c24:	e13ffe15 	stw	r4,-8(fp)
     c28:	e17fff05 	stb	r5,-4(fp)
	int i;
	JQUANT_TBL * qtbl;
	JHUFF_TBL * htbl;

	for (i = 0; i < NUM_QUANT_TBLS; i++) {
     c2c:	e03ffd15 	stw	zero,-12(fp)
     c30:	00001106 	br	c78 <jpeg_suppress_tables+0x60>
		if ((qtbl = cinfo->quant_tbl_ptrs[i]) != NULL)
     c34:	e0bffd17 	ldw	r2,-12(fp)
     c38:	e0fffe17 	ldw	r3,-8(fp)
     c3c:	1085883a 	add	r2,r2,r2
     c40:	1085883a 	add	r2,r2,r2
     c44:	10c5883a 	add	r2,r2,r3
     c48:	10801504 	addi	r2,r2,84
     c4c:	10800017 	ldw	r2,0(r2)
     c50:	e0bffc15 	stw	r2,-16(fp)
     c54:	e0bffc17 	ldw	r2,-16(fp)
     c58:	1005003a 	cmpeq	r2,r2,zero
     c5c:	1000031e 	bne	r2,zero,c6c <jpeg_suppress_tables+0x54>
			qtbl->sent_table = suppress;
     c60:	e0fffc17 	ldw	r3,-16(fp)
     c64:	e0bfff03 	ldbu	r2,-4(fp)
     c68:	18802005 	stb	r2,128(r3)
{
	int i;
	JQUANT_TBL * qtbl;
	JHUFF_TBL * htbl;

	for (i = 0; i < NUM_QUANT_TBLS; i++) {
     c6c:	e0bffd17 	ldw	r2,-12(fp)
     c70:	10800044 	addi	r2,r2,1
     c74:	e0bffd15 	stw	r2,-12(fp)
     c78:	e0bffd17 	ldw	r2,-12(fp)
     c7c:	10800110 	cmplti	r2,r2,4
     c80:	103fec1e 	bne	r2,zero,c34 <jpeg_suppress_tables+0x1c>
		if ((qtbl = cinfo->quant_tbl_ptrs[i]) != NULL)
			qtbl->sent_table = suppress;
	}

	for (i = 0; i < NUM_HUFF_TBLS; i++) {
     c84:	e03ffd15 	stw	zero,-12(fp)
     c88:	00001f06 	br	d08 <jpeg_suppress_tables+0xf0>
		if ((htbl = cinfo->dc_huff_tbl_ptrs[i]) != NULL)
     c8c:	e0bffd17 	ldw	r2,-12(fp)
     c90:	e0fffe17 	ldw	r3,-8(fp)
     c94:	1085883a 	add	r2,r2,r2
     c98:	1085883a 	add	r2,r2,r2
     c9c:	10c5883a 	add	r2,r2,r3
     ca0:	10801d04 	addi	r2,r2,116
     ca4:	10800017 	ldw	r2,0(r2)
     ca8:	e0bffb15 	stw	r2,-20(fp)
     cac:	e0bffb17 	ldw	r2,-20(fp)
     cb0:	1005003a 	cmpeq	r2,r2,zero
     cb4:	1000031e 	bne	r2,zero,cc4 <jpeg_suppress_tables+0xac>
			htbl->sent_table = suppress;
     cb8:	e0fffb17 	ldw	r3,-20(fp)
     cbc:	e0bfff03 	ldbu	r2,-4(fp)
     cc0:	18804445 	stb	r2,273(r3)
		if ((htbl = cinfo->ac_huff_tbl_ptrs[i]) != NULL)
     cc4:	e0bffd17 	ldw	r2,-12(fp)
     cc8:	e0fffe17 	ldw	r3,-8(fp)
     ccc:	1085883a 	add	r2,r2,r2
     cd0:	1085883a 	add	r2,r2,r2
     cd4:	10c5883a 	add	r2,r2,r3
     cd8:	10802104 	addi	r2,r2,132
     cdc:	10800017 	ldw	r2,0(r2)
     ce0:	e0bffb15 	stw	r2,-20(fp)
     ce4:	e0bffb17 	ldw	r2,-20(fp)
     ce8:	1005003a 	cmpeq	r2,r2,zero
     cec:	1000031e 	bne	r2,zero,cfc <jpeg_suppress_tables+0xe4>
			htbl->sent_table = suppress;
     cf0:	e0fffb17 	ldw	r3,-20(fp)
     cf4:	e0bfff03 	ldbu	r2,-4(fp)
     cf8:	18804445 	stb	r2,273(r3)
	for (i = 0; i < NUM_QUANT_TBLS; i++) {
		if ((qtbl = cinfo->quant_tbl_ptrs[i]) != NULL)
			qtbl->sent_table = suppress;
	}

	for (i = 0; i < NUM_HUFF_TBLS; i++) {
     cfc:	e0bffd17 	ldw	r2,-12(fp)
     d00:	10800044 	addi	r2,r2,1
     d04:	e0bffd15 	stw	r2,-12(fp)
     d08:	e0bffd17 	ldw	r2,-12(fp)
     d0c:	10800110 	cmplti	r2,r2,4
     d10:	103fde1e 	bne	r2,zero,c8c <jpeg_suppress_tables+0x74>
		if ((htbl = cinfo->dc_huff_tbl_ptrs[i]) != NULL)
			htbl->sent_table = suppress;
		if ((htbl = cinfo->ac_huff_tbl_ptrs[i]) != NULL)
			htbl->sent_table = suppress;
	}
}
     d14:	e037883a 	mov	sp,fp
     d18:	df000017 	ldw	fp,0(sp)
     d1c:	dec00104 	addi	sp,sp,4
     d20:	f800283a 	ret

00000d24 <jpeg_finish_compress>:
* work including most of the actual output.
*/

GLOBAL(void)
	jpeg_finish_compress (j_compress_ptr cinfo)
{
     d24:	defffc04 	addi	sp,sp,-16
     d28:	dfc00315 	stw	ra,12(sp)
     d2c:	df000215 	stw	fp,8(sp)
     d30:	df000204 	addi	fp,sp,8
     d34:	e13fff15 	stw	r4,-4(fp)
	JDIMENSION iMCU_row;

	if (cinfo->global_state == CSTATE_SCANNING ||
     d38:	e0bfff17 	ldw	r2,-4(fp)
     d3c:	10800517 	ldw	r2,20(r2)
     d40:	10801960 	cmpeqi	r2,r2,101
     d44:	1000041e 	bne	r2,zero,d58 <jpeg_finish_compress+0x34>
     d48:	e0bfff17 	ldw	r2,-4(fp)
     d4c:	10800517 	ldw	r2,20(r2)
     d50:	10801998 	cmpnei	r2,r2,102
     d54:	1000141e 	bne	r2,zero,da8 <jpeg_finish_compress+0x84>
		cinfo->global_state == CSTATE_RAW_OK) {
			/* Terminate first pass */
			if (cinfo->next_scanline < cinfo->image_height)
     d58:	e0bfff17 	ldw	r2,-4(fp)
     d5c:	10c03c17 	ldw	r3,240(r2)
     d60:	e0bfff17 	ldw	r2,-4(fp)
     d64:	10800817 	ldw	r2,32(r2)
     d68:	1880092e 	bgeu	r3,r2,d90 <jpeg_finish_compress+0x6c>
				ERREXIT(cinfo, JERR_TOO_LITTLE_DATA);
     d6c:	e0bfff17 	ldw	r2,-4(fp)
     d70:	10c00017 	ldw	r3,0(r2)
     d74:	00801144 	movi	r2,69
     d78:	18800515 	stw	r2,20(r3)
     d7c:	e0bfff17 	ldw	r2,-4(fp)
     d80:	10800017 	ldw	r2,0(r2)
     d84:	10800017 	ldw	r2,0(r2)
     d88:	e13fff17 	ldw	r4,-4(fp)
     d8c:	103ee83a 	callr	r2
			(*cinfo->master->finish_pass) (cinfo);
     d90:	e0bfff17 	ldw	r2,-4(fp)
     d94:	10805c17 	ldw	r2,368(r2)
     d98:	10800217 	ldw	r2,8(r2)
     d9c:	e13fff17 	ldw	r4,-4(fp)
     da0:	103ee83a 	callr	r2
GLOBAL(void)
	jpeg_finish_compress (j_compress_ptr cinfo)
{
	JDIMENSION iMCU_row;

	if (cinfo->global_state == CSTATE_SCANNING ||
     da4:	00004a06 	br	ed0 <jpeg_finish_compress+0x1ac>
		cinfo->global_state == CSTATE_RAW_OK) {
			/* Terminate first pass */
			if (cinfo->next_scanline < cinfo->image_height)
				ERREXIT(cinfo, JERR_TOO_LITTLE_DATA);
			(*cinfo->master->finish_pass) (cinfo);
	} else if (cinfo->global_state != CSTATE_WRCOEFS)
     da8:	e0bfff17 	ldw	r2,-4(fp)
     dac:	10800517 	ldw	r2,20(r2)
     db0:	108019e0 	cmpeqi	r2,r2,103
     db4:	1000461e 	bne	r2,zero,ed0 <jpeg_finish_compress+0x1ac>
		ERREXIT1(cinfo, JERR_BAD_STATE, cinfo->global_state);
     db8:	e0bfff17 	ldw	r2,-4(fp)
     dbc:	10c00017 	ldw	r3,0(r2)
     dc0:	00800544 	movi	r2,21
     dc4:	18800515 	stw	r2,20(r3)
     dc8:	e0bfff17 	ldw	r2,-4(fp)
     dcc:	10c00017 	ldw	r3,0(r2)
     dd0:	e0bfff17 	ldw	r2,-4(fp)
     dd4:	10800517 	ldw	r2,20(r2)
     dd8:	18800615 	stw	r2,24(r3)
     ddc:	e0bfff17 	ldw	r2,-4(fp)
     de0:	10800017 	ldw	r2,0(r2)
     de4:	10800017 	ldw	r2,0(r2)
     de8:	e13fff17 	ldw	r4,-4(fp)
     dec:	103ee83a 	callr	r2
	/* Perform any remaining passes */
	while (! cinfo->master->is_last_pass) {
     df0:	00003706 	br	ed0 <jpeg_finish_compress+0x1ac>
		(*cinfo->master->prepare_for_pass) (cinfo);
     df4:	e0bfff17 	ldw	r2,-4(fp)
     df8:	10805c17 	ldw	r2,368(r2)
     dfc:	10800017 	ldw	r2,0(r2)
     e00:	e13fff17 	ldw	r4,-4(fp)
     e04:	103ee83a 	callr	r2
		for (iMCU_row = 0; iMCU_row < cinfo->total_iMCU_rows; iMCU_row++) {
     e08:	e03ffe15 	stw	zero,-8(fp)
     e0c:	00002706 	br	eac <jpeg_finish_compress+0x188>
			if (cinfo->progress != NULL) {
     e10:	e0bfff17 	ldw	r2,-4(fp)
     e14:	10800217 	ldw	r2,8(r2)
     e18:	1005003a 	cmpeq	r2,r2,zero
     e1c:	10000e1e 	bne	r2,zero,e58 <jpeg_finish_compress+0x134>
				cinfo->progress->pass_counter = (long) iMCU_row;
     e20:	e0bfff17 	ldw	r2,-4(fp)
     e24:	10c00217 	ldw	r3,8(r2)
     e28:	e0bffe17 	ldw	r2,-8(fp)
     e2c:	18800115 	stw	r2,4(r3)
				cinfo->progress->pass_limit = (long) cinfo->total_iMCU_rows;
     e30:	e0bfff17 	ldw	r2,-4(fp)
     e34:	10c00217 	ldw	r3,8(r2)
     e38:	e0bfff17 	ldw	r2,-4(fp)
     e3c:	10804217 	ldw	r2,264(r2)
     e40:	18800215 	stw	r2,8(r3)
				(*cinfo->progress->progress_monitor) ((j_common_ptr) cinfo);
     e44:	e0bfff17 	ldw	r2,-4(fp)
     e48:	10800217 	ldw	r2,8(r2)
     e4c:	10800017 	ldw	r2,0(r2)
     e50:	e13fff17 	ldw	r4,-4(fp)
     e54:	103ee83a 	callr	r2
			}
			/* We bypass the main controller and invoke coef controller directly;
			* all work is being done from the coefficient buffer.
			*/
			if (! (*cinfo->coef->compress_data) (cinfo, (JSAMPIMAGE) NULL))
     e58:	e0bfff17 	ldw	r2,-4(fp)
     e5c:	10805f17 	ldw	r2,380(r2)
     e60:	10800117 	ldw	r2,4(r2)
     e64:	e13fff17 	ldw	r4,-4(fp)
     e68:	000b883a 	mov	r5,zero
     e6c:	103ee83a 	callr	r2
     e70:	10803fcc 	andi	r2,r2,255
     e74:	1004c03a 	cmpne	r2,r2,zero
     e78:	1000091e 	bne	r2,zero,ea0 <jpeg_finish_compress+0x17c>
				ERREXIT(cinfo, JERR_CANT_SUSPEND);
     e7c:	e0bfff17 	ldw	r2,-4(fp)
     e80:	10c00017 	ldw	r3,0(r2)
     e84:	00800644 	movi	r2,25
     e88:	18800515 	stw	r2,20(r3)
     e8c:	e0bfff17 	ldw	r2,-4(fp)
     e90:	10800017 	ldw	r2,0(r2)
     e94:	10800017 	ldw	r2,0(r2)
     e98:	e13fff17 	ldw	r4,-4(fp)
     e9c:	103ee83a 	callr	r2
	} else if (cinfo->global_state != CSTATE_WRCOEFS)
		ERREXIT1(cinfo, JERR_BAD_STATE, cinfo->global_state);
	/* Perform any remaining passes */
	while (! cinfo->master->is_last_pass) {
		(*cinfo->master->prepare_for_pass) (cinfo);
		for (iMCU_row = 0; iMCU_row < cinfo->total_iMCU_rows; iMCU_row++) {
     ea0:	e0bffe17 	ldw	r2,-8(fp)
     ea4:	10800044 	addi	r2,r2,1
     ea8:	e0bffe15 	stw	r2,-8(fp)
     eac:	e0bfff17 	ldw	r2,-4(fp)
     eb0:	10c04217 	ldw	r3,264(r2)
     eb4:	e0bffe17 	ldw	r2,-8(fp)
     eb8:	10ffd536 	bltu	r2,r3,e10 <jpeg_finish_compress+0xec>
			* all work is being done from the coefficient buffer.
			*/
			if (! (*cinfo->coef->compress_data) (cinfo, (JSAMPIMAGE) NULL))
				ERREXIT(cinfo, JERR_CANT_SUSPEND);
		}
		(*cinfo->master->finish_pass) (cinfo);
     ebc:	e0bfff17 	ldw	r2,-4(fp)
     ec0:	10805c17 	ldw	r2,368(r2)
     ec4:	10800217 	ldw	r2,8(r2)
     ec8:	e13fff17 	ldw	r4,-4(fp)
     ecc:	103ee83a 	callr	r2
				ERREXIT(cinfo, JERR_TOO_LITTLE_DATA);
			(*cinfo->master->finish_pass) (cinfo);
	} else if (cinfo->global_state != CSTATE_WRCOEFS)
		ERREXIT1(cinfo, JERR_BAD_STATE, cinfo->global_state);
	/* Perform any remaining passes */
	while (! cinfo->master->is_last_pass) {
     ed0:	e0bfff17 	ldw	r2,-4(fp)
     ed4:	10805c17 	ldw	r2,368(r2)
     ed8:	10800343 	ldbu	r2,13(r2)
     edc:	10803fcc 	andi	r2,r2,255
     ee0:	1005003a 	cmpeq	r2,r2,zero
     ee4:	103fc31e 	bne	r2,zero,df4 <jpeg_finish_compress+0xd0>
				ERREXIT(cinfo, JERR_CANT_SUSPEND);
		}
		(*cinfo->master->finish_pass) (cinfo);
	}
	/* Write EOI, do final cleanup */
	(*cinfo->marker->write_file_trailer) (cinfo);
     ee8:	e0bfff17 	ldw	r2,-4(fp)
     eec:	10806017 	ldw	r2,384(r2)
     ef0:	10800317 	ldw	r2,12(r2)
     ef4:	e13fff17 	ldw	r4,-4(fp)
     ef8:	103ee83a 	callr	r2
	(*cinfo->dest->term_destination) (cinfo);
     efc:	e0bfff17 	ldw	r2,-4(fp)
     f00:	10800617 	ldw	r2,24(r2)
     f04:	10800417 	ldw	r2,16(r2)
     f08:	e13fff17 	ldw	r4,-4(fp)
     f0c:	103ee83a 	callr	r2
	/* We can use jpeg_abort to release memory and reset global_state */
	jpeg_abort((j_common_ptr) cinfo);
     f10:	e13fff17 	ldw	r4,-4(fp)
     f14:	000d6200 	call	d620 <jpeg_abort>
}
     f18:	e037883a 	mov	sp,fp
     f1c:	dfc00117 	ldw	ra,4(sp)
     f20:	df000017 	ldw	fp,0(sp)
     f24:	dec00204 	addi	sp,sp,8
     f28:	f800283a 	ret

00000f2c <jpeg_write_marker>:
*/

GLOBAL(void)
	jpeg_write_marker (j_compress_ptr cinfo, int marker,
	const JOCTET *dataptr, unsigned int datalen)
{
     f2c:	defff904 	addi	sp,sp,-28
     f30:	dfc00615 	stw	ra,24(sp)
     f34:	df000515 	stw	fp,20(sp)
     f38:	df000504 	addi	fp,sp,20
     f3c:	e13ffc15 	stw	r4,-16(fp)
     f40:	e17ffd15 	stw	r5,-12(fp)
     f44:	e1bffe15 	stw	r6,-8(fp)
     f48:	e1ffff15 	stw	r7,-4(fp)
	JMETHOD(void, write_marker_byte, (j_compress_ptr info, int val));

	if (cinfo->next_scanline != 0 ||
     f4c:	e0bffc17 	ldw	r2,-16(fp)
     f50:	10803c17 	ldw	r2,240(r2)
     f54:	1004c03a 	cmpne	r2,r2,zero
     f58:	10000c1e 	bne	r2,zero,f8c <jpeg_write_marker+0x60>
     f5c:	e0bffc17 	ldw	r2,-16(fp)
     f60:	10800517 	ldw	r2,20(r2)
     f64:	10801960 	cmpeqi	r2,r2,101
     f68:	1000161e 	bne	r2,zero,fc4 <jpeg_write_marker+0x98>
     f6c:	e0bffc17 	ldw	r2,-16(fp)
     f70:	10800517 	ldw	r2,20(r2)
     f74:	108019a0 	cmpeqi	r2,r2,102
     f78:	1000121e 	bne	r2,zero,fc4 <jpeg_write_marker+0x98>
     f7c:	e0bffc17 	ldw	r2,-16(fp)
     f80:	10800517 	ldw	r2,20(r2)
     f84:	108019e0 	cmpeqi	r2,r2,103
     f88:	10000e1e 	bne	r2,zero,fc4 <jpeg_write_marker+0x98>
		(cinfo->global_state != CSTATE_SCANNING &&
		cinfo->global_state != CSTATE_RAW_OK &&
		cinfo->global_state != CSTATE_WRCOEFS))
		ERREXIT1(cinfo, JERR_BAD_STATE, cinfo->global_state);
     f8c:	e0bffc17 	ldw	r2,-16(fp)
     f90:	10c00017 	ldw	r3,0(r2)
     f94:	00800544 	movi	r2,21
     f98:	18800515 	stw	r2,20(r3)
     f9c:	e0bffc17 	ldw	r2,-16(fp)
     fa0:	10c00017 	ldw	r3,0(r2)
     fa4:	e0bffc17 	ldw	r2,-16(fp)
     fa8:	10800517 	ldw	r2,20(r2)
     fac:	18800615 	stw	r2,24(r3)
     fb0:	e0bffc17 	ldw	r2,-16(fp)
     fb4:	10800017 	ldw	r2,0(r2)
     fb8:	10800017 	ldw	r2,0(r2)
     fbc:	e13ffc17 	ldw	r4,-16(fp)
     fc0:	103ee83a 	callr	r2

	(*cinfo->marker->write_marker_header) (cinfo, marker, datalen);
     fc4:	e0bffc17 	ldw	r2,-16(fp)
     fc8:	10806017 	ldw	r2,384(r2)
     fcc:	10800517 	ldw	r2,20(r2)
     fd0:	e13ffc17 	ldw	r4,-16(fp)
     fd4:	e17ffd17 	ldw	r5,-12(fp)
     fd8:	e1bfff17 	ldw	r6,-4(fp)
     fdc:	103ee83a 	callr	r2
	write_marker_byte = cinfo->marker->write_marker_byte;	/* copy for speed */
     fe0:	e0bffc17 	ldw	r2,-16(fp)
     fe4:	10806017 	ldw	r2,384(r2)
     fe8:	10800617 	ldw	r2,24(r2)
     fec:	e0bffb15 	stw	r2,-20(fp)
	while (datalen--) {
     ff0:	00000906 	br	1018 <jpeg_write_marker+0xec>
		(*write_marker_byte) (cinfo, *dataptr);
     ff4:	e0bffe17 	ldw	r2,-8(fp)
     ff8:	10800003 	ldbu	r2,0(r2)
     ffc:	11403fcc 	andi	r5,r2,255
    1000:	e0bffb17 	ldw	r2,-20(fp)
    1004:	e13ffc17 	ldw	r4,-16(fp)
    1008:	103ee83a 	callr	r2
		dataptr++;
    100c:	e0bffe17 	ldw	r2,-8(fp)
    1010:	10800044 	addi	r2,r2,1
    1014:	e0bffe15 	stw	r2,-8(fp)
		cinfo->global_state != CSTATE_WRCOEFS))
		ERREXIT1(cinfo, JERR_BAD_STATE, cinfo->global_state);

	(*cinfo->marker->write_marker_header) (cinfo, marker, datalen);
	write_marker_byte = cinfo->marker->write_marker_byte;	/* copy for speed */
	while (datalen--) {
    1018:	e0bfff17 	ldw	r2,-4(fp)
    101c:	10bfffc4 	addi	r2,r2,-1
    1020:	e0bfff15 	stw	r2,-4(fp)
    1024:	e0bfff17 	ldw	r2,-4(fp)
    1028:	10bfffd8 	cmpnei	r2,r2,-1
    102c:	103ff11e 	bne	r2,zero,ff4 <jpeg_write_marker+0xc8>
		(*write_marker_byte) (cinfo, *dataptr);
		dataptr++;
	}
}
    1030:	e037883a 	mov	sp,fp
    1034:	dfc00117 	ldw	ra,4(sp)
    1038:	df000017 	ldw	fp,0(sp)
    103c:	dec00204 	addi	sp,sp,8
    1040:	f800283a 	ret

00001044 <jpeg_write_m_header>:

/* Same, but piecemeal. */

GLOBAL(void)
	jpeg_write_m_header (j_compress_ptr cinfo, int marker, unsigned int datalen)
{
    1044:	defffb04 	addi	sp,sp,-20
    1048:	dfc00415 	stw	ra,16(sp)
    104c:	df000315 	stw	fp,12(sp)
    1050:	df000304 	addi	fp,sp,12
    1054:	e13ffd15 	stw	r4,-12(fp)
    1058:	e17ffe15 	stw	r5,-8(fp)
    105c:	e1bfff15 	stw	r6,-4(fp)
	if (cinfo->next_scanline != 0 ||
    1060:	e0bffd17 	ldw	r2,-12(fp)
    1064:	10803c17 	ldw	r2,240(r2)
    1068:	1004c03a 	cmpne	r2,r2,zero
    106c:	10000c1e 	bne	r2,zero,10a0 <jpeg_write_m_header+0x5c>
    1070:	e0bffd17 	ldw	r2,-12(fp)
    1074:	10800517 	ldw	r2,20(r2)
    1078:	10801960 	cmpeqi	r2,r2,101
    107c:	1000161e 	bne	r2,zero,10d8 <jpeg_write_m_header+0x94>
    1080:	e0bffd17 	ldw	r2,-12(fp)
    1084:	10800517 	ldw	r2,20(r2)
    1088:	108019a0 	cmpeqi	r2,r2,102
    108c:	1000121e 	bne	r2,zero,10d8 <jpeg_write_m_header+0x94>
    1090:	e0bffd17 	ldw	r2,-12(fp)
    1094:	10800517 	ldw	r2,20(r2)
    1098:	108019e0 	cmpeqi	r2,r2,103
    109c:	10000e1e 	bne	r2,zero,10d8 <jpeg_write_m_header+0x94>
		(cinfo->global_state != CSTATE_SCANNING &&
		cinfo->global_state != CSTATE_RAW_OK &&
		cinfo->global_state != CSTATE_WRCOEFS))
		ERREXIT1(cinfo, JERR_BAD_STATE, cinfo->global_state);
    10a0:	e0bffd17 	ldw	r2,-12(fp)
    10a4:	10c00017 	ldw	r3,0(r2)
    10a8:	00800544 	movi	r2,21
    10ac:	18800515 	stw	r2,20(r3)
    10b0:	e0bffd17 	ldw	r2,-12(fp)
    10b4:	10c00017 	ldw	r3,0(r2)
    10b8:	e0bffd17 	ldw	r2,-12(fp)
    10bc:	10800517 	ldw	r2,20(r2)
    10c0:	18800615 	stw	r2,24(r3)
    10c4:	e0bffd17 	ldw	r2,-12(fp)
    10c8:	10800017 	ldw	r2,0(r2)
    10cc:	10800017 	ldw	r2,0(r2)
    10d0:	e13ffd17 	ldw	r4,-12(fp)
    10d4:	103ee83a 	callr	r2

	(*cinfo->marker->write_marker_header) (cinfo, marker, datalen);
    10d8:	e0bffd17 	ldw	r2,-12(fp)
    10dc:	10806017 	ldw	r2,384(r2)
    10e0:	10800517 	ldw	r2,20(r2)
    10e4:	e13ffd17 	ldw	r4,-12(fp)
    10e8:	e17ffe17 	ldw	r5,-8(fp)
    10ec:	e1bfff17 	ldw	r6,-4(fp)
    10f0:	103ee83a 	callr	r2
}
    10f4:	e037883a 	mov	sp,fp
    10f8:	dfc00117 	ldw	ra,4(sp)
    10fc:	df000017 	ldw	fp,0(sp)
    1100:	dec00204 	addi	sp,sp,8
    1104:	f800283a 	ret

00001108 <jpeg_write_m_byte>:

GLOBAL(void)
	jpeg_write_m_byte (j_compress_ptr cinfo, int val)
{
    1108:	defffc04 	addi	sp,sp,-16
    110c:	dfc00315 	stw	ra,12(sp)
    1110:	df000215 	stw	fp,8(sp)
    1114:	df000204 	addi	fp,sp,8
    1118:	e13ffe15 	stw	r4,-8(fp)
    111c:	e17fff15 	stw	r5,-4(fp)
	(*cinfo->marker->write_marker_byte) (cinfo, val);
    1120:	e0bffe17 	ldw	r2,-8(fp)
    1124:	10806017 	ldw	r2,384(r2)
    1128:	10800617 	ldw	r2,24(r2)
    112c:	e13ffe17 	ldw	r4,-8(fp)
    1130:	e17fff17 	ldw	r5,-4(fp)
    1134:	103ee83a 	callr	r2
}
    1138:	e037883a 	mov	sp,fp
    113c:	dfc00117 	ldw	ra,4(sp)
    1140:	df000017 	ldw	fp,0(sp)
    1144:	dec00204 	addi	sp,sp,8
    1148:	f800283a 	ret

0000114c <jpeg_write_tables>:
* will not re-emit the tables unless it is passed write_all_tables=TRUE.
*/

GLOBAL(void)
	jpeg_write_tables (j_compress_ptr cinfo)
{
    114c:	defffd04 	addi	sp,sp,-12
    1150:	dfc00215 	stw	ra,8(sp)
    1154:	df000115 	stw	fp,4(sp)
    1158:	df000104 	addi	fp,sp,4
    115c:	e13fff15 	stw	r4,-4(fp)
	if (cinfo->global_state != CSTATE_START)
    1160:	e0bfff17 	ldw	r2,-4(fp)
    1164:	10800517 	ldw	r2,20(r2)
    1168:	10801920 	cmpeqi	r2,r2,100
    116c:	10000e1e 	bne	r2,zero,11a8 <jpeg_write_tables+0x5c>
		ERREXIT1(cinfo, JERR_BAD_STATE, cinfo->global_state);
    1170:	e0bfff17 	ldw	r2,-4(fp)
    1174:	10c00017 	ldw	r3,0(r2)
    1178:	00800544 	movi	r2,21
    117c:	18800515 	stw	r2,20(r3)
    1180:	e0bfff17 	ldw	r2,-4(fp)
    1184:	10c00017 	ldw	r3,0(r2)
    1188:	e0bfff17 	ldw	r2,-4(fp)
    118c:	10800517 	ldw	r2,20(r2)
    1190:	18800615 	stw	r2,24(r3)
    1194:	e0bfff17 	ldw	r2,-4(fp)
    1198:	10800017 	ldw	r2,0(r2)
    119c:	10800017 	ldw	r2,0(r2)
    11a0:	e13fff17 	ldw	r4,-4(fp)
    11a4:	103ee83a 	callr	r2

	/* (Re)initialize error mgr and destination modules */
	(*cinfo->err->reset_error_mgr) ((j_common_ptr) cinfo);
    11a8:	e0bfff17 	ldw	r2,-4(fp)
    11ac:	10800017 	ldw	r2,0(r2)
    11b0:	10800417 	ldw	r2,16(r2)
    11b4:	e13fff17 	ldw	r4,-4(fp)
    11b8:	103ee83a 	callr	r2
	(*cinfo->dest->init_destination) (cinfo);
    11bc:	e0bfff17 	ldw	r2,-4(fp)
    11c0:	10800617 	ldw	r2,24(r2)
    11c4:	10800217 	ldw	r2,8(r2)
    11c8:	e13fff17 	ldw	r4,-4(fp)
    11cc:	103ee83a 	callr	r2
	/* Initialize the marker writer ... bit of a crock to do it here. */
	jinit_marker_writer(cinfo);
    11d0:	e13fff17 	ldw	r4,-4(fp)
    11d4:	000b7f00 	call	b7f0 <jinit_marker_writer>
	/* Write them tables! */
	(*cinfo->marker->write_tables_only) (cinfo);
    11d8:	e0bfff17 	ldw	r2,-4(fp)
    11dc:	10806017 	ldw	r2,384(r2)
    11e0:	10800417 	ldw	r2,16(r2)
    11e4:	e13fff17 	ldw	r4,-4(fp)
    11e8:	103ee83a 	callr	r2
	/* And clean up. */
	(*cinfo->dest->term_destination) (cinfo);
    11ec:	e0bfff17 	ldw	r2,-4(fp)
    11f0:	10800617 	ldw	r2,24(r2)
    11f4:	10800417 	ldw	r2,16(r2)
    11f8:	e13fff17 	ldw	r4,-4(fp)
    11fc:	103ee83a 	callr	r2
	* compression cycle or otherwise resetting the JPEG object.  However, that
	* seems less bad than unexpectedly freeing memory in the normal case.
	* An app that prefers the old behavior can call jpeg_abort for itself after
	* each call to jpeg_write_tables().
	*/
}
    1200:	e037883a 	mov	sp,fp
    1204:	dfc00117 	ldw	ra,4(sp)
    1208:	df000017 	ldw	fp,0(sp)
    120c:	dec00204 	addi	sp,sp,8
    1210:	f800283a 	ret

00001214 <jpeg_start_compress>:
* wrong thing.
*/

GLOBAL(void)
	jpeg_start_compress (j_compress_ptr cinfo, boolean write_all_tables)
{
    1214:	defffb04 	addi	sp,sp,-20
    1218:	dfc00415 	stw	ra,16(sp)
    121c:	df000315 	stw	fp,12(sp)
    1220:	df000304 	addi	fp,sp,12
    1224:	e13ffd15 	stw	r4,-12(fp)
    1228:	e17ffe05 	stb	r5,-8(fp)
	if (cinfo->global_state != CSTATE_START)
    122c:	e0bffd17 	ldw	r2,-12(fp)
    1230:	10800517 	ldw	r2,20(r2)
    1234:	10801920 	cmpeqi	r2,r2,100
    1238:	10000e1e 	bne	r2,zero,1274 <jpeg_start_compress+0x60>
		ERREXIT1(cinfo, JERR_BAD_STATE, cinfo->global_state);
    123c:	e0bffd17 	ldw	r2,-12(fp)
    1240:	10c00017 	ldw	r3,0(r2)
    1244:	00800544 	movi	r2,21
    1248:	18800515 	stw	r2,20(r3)
    124c:	e0bffd17 	ldw	r2,-12(fp)
    1250:	10c00017 	ldw	r3,0(r2)
    1254:	e0bffd17 	ldw	r2,-12(fp)
    1258:	10800517 	ldw	r2,20(r2)
    125c:	18800615 	stw	r2,24(r3)
    1260:	e0bffd17 	ldw	r2,-12(fp)
    1264:	10800017 	ldw	r2,0(r2)
    1268:	10800017 	ldw	r2,0(r2)
    126c:	e13ffd17 	ldw	r4,-12(fp)
    1270:	103ee83a 	callr	r2

	if (write_all_tables)
    1274:	e0bffe03 	ldbu	r2,-8(fp)
    1278:	1005003a 	cmpeq	r2,r2,zero
    127c:	1000031e 	bne	r2,zero,128c <jpeg_start_compress+0x78>
		jpeg_suppress_tables(cinfo, FALSE);	/* mark all tables to be written */
    1280:	e13ffd17 	ldw	r4,-12(fp)
    1284:	000b883a 	mov	r5,zero
    1288:	0000c180 	call	c18 <jpeg_suppress_tables>

	/* (Re)initialize error mgr and destination modules */
	(*cinfo->err->reset_error_mgr) ((j_common_ptr) cinfo);
    128c:	e0bffd17 	ldw	r2,-12(fp)
    1290:	10800017 	ldw	r2,0(r2)
    1294:	10800417 	ldw	r2,16(r2)
    1298:	e13ffd17 	ldw	r4,-12(fp)
    129c:	103ee83a 	callr	r2
	(*cinfo->dest->init_destination) (cinfo);
    12a0:	e0bffd17 	ldw	r2,-12(fp)
    12a4:	10800617 	ldw	r2,24(r2)
    12a8:	10800217 	ldw	r2,8(r2)
    12ac:	e13ffd17 	ldw	r4,-12(fp)
    12b0:	103ee83a 	callr	r2
	/* Perform master selection of active modules */
	jinit_compress_master(cinfo);
    12b4:	e13ffd17 	ldw	r4,-12(fp)
    12b8:	0009fec0 	call	9fec <jinit_compress_master>
	/* Set up for the first pass */
	(*cinfo->master->prepare_for_pass) (cinfo);
    12bc:	e0bffd17 	ldw	r2,-12(fp)
    12c0:	10805c17 	ldw	r2,368(r2)
    12c4:	10800017 	ldw	r2,0(r2)
    12c8:	e13ffd17 	ldw	r4,-12(fp)
    12cc:	103ee83a 	callr	r2
	/* Ready for application to drive first pass through jpeg_write_scanlines
	* or jpeg_write_raw_data.
	*/
	cinfo->next_scanline = 0;
    12d0:	e0bffd17 	ldw	r2,-12(fp)
    12d4:	10003c15 	stw	zero,240(r2)
	cinfo->global_state = (cinfo->raw_data_in ? CSTATE_RAW_OK : CSTATE_SCANNING);
    12d8:	e0bffd17 	ldw	r2,-12(fp)
    12dc:	10803303 	ldbu	r2,204(r2)
    12e0:	10803fcc 	andi	r2,r2,255
    12e4:	1005003a 	cmpeq	r2,r2,zero
    12e8:	1000031e 	bne	r2,zero,12f8 <jpeg_start_compress+0xe4>
    12ec:	00801984 	movi	r2,102
    12f0:	e0bfff15 	stw	r2,-4(fp)
    12f4:	00000206 	br	1300 <jpeg_start_compress+0xec>
    12f8:	00c01944 	movi	r3,101
    12fc:	e0ffff15 	stw	r3,-4(fp)
    1300:	e0bffd17 	ldw	r2,-12(fp)
    1304:	e0ffff17 	ldw	r3,-4(fp)
    1308:	10c00515 	stw	r3,20(r2)
}
    130c:	e037883a 	mov	sp,fp
    1310:	dfc00117 	ldw	ra,4(sp)
    1314:	df000017 	ldw	fp,0(sp)
    1318:	dec00204 	addi	sp,sp,8
    131c:	f800283a 	ret

00001320 <jpeg_write_scanlines>:
*/

GLOBAL(JDIMENSION)
	jpeg_write_scanlines (j_compress_ptr cinfo, JSAMPARRAY scanlines,
	JDIMENSION num_lines)
{
    1320:	defff904 	addi	sp,sp,-28
    1324:	dfc00615 	stw	ra,24(sp)
    1328:	df000515 	stw	fp,20(sp)
    132c:	df000504 	addi	fp,sp,20
    1330:	e13ffd15 	stw	r4,-12(fp)
    1334:	e17ffe15 	stw	r5,-8(fp)
    1338:	e1bfff15 	stw	r6,-4(fp)
	JDIMENSION row_ctr, rows_left;

	if (cinfo->global_state != CSTATE_SCANNING)
    133c:	e0bffd17 	ldw	r2,-12(fp)
    1340:	10800517 	ldw	r2,20(r2)
    1344:	10801960 	cmpeqi	r2,r2,101
    1348:	10000e1e 	bne	r2,zero,1384 <jpeg_write_scanlines+0x64>
		ERREXIT1(cinfo, JERR_BAD_STATE, cinfo->global_state);
    134c:	e0bffd17 	ldw	r2,-12(fp)
    1350:	10c00017 	ldw	r3,0(r2)
    1354:	00800544 	movi	r2,21
    1358:	18800515 	stw	r2,20(r3)
    135c:	e0bffd17 	ldw	r2,-12(fp)
    1360:	10c00017 	ldw	r3,0(r2)
    1364:	e0bffd17 	ldw	r2,-12(fp)
    1368:	10800517 	ldw	r2,20(r2)
    136c:	18800615 	stw	r2,24(r3)
    1370:	e0bffd17 	ldw	r2,-12(fp)
    1374:	10800017 	ldw	r2,0(r2)
    1378:	10800017 	ldw	r2,0(r2)
    137c:	e13ffd17 	ldw	r4,-12(fp)
    1380:	103ee83a 	callr	r2
	if (cinfo->next_scanline >= cinfo->image_height)
    1384:	e0bffd17 	ldw	r2,-12(fp)
    1388:	10c03c17 	ldw	r3,240(r2)
    138c:	e0bffd17 	ldw	r2,-12(fp)
    1390:	10800817 	ldw	r2,32(r2)
    1394:	18800a36 	bltu	r3,r2,13c0 <jpeg_write_scanlines+0xa0>
		WARNMS(cinfo, JWRN_TOO_MUCH_DATA);
    1398:	e0bffd17 	ldw	r2,-12(fp)
    139c:	10c00017 	ldw	r3,0(r2)
    13a0:	00801f84 	movi	r2,126
    13a4:	18800515 	stw	r2,20(r3)
    13a8:	e0bffd17 	ldw	r2,-12(fp)
    13ac:	10800017 	ldw	r2,0(r2)
    13b0:	10800117 	ldw	r2,4(r2)
    13b4:	e13ffd17 	ldw	r4,-12(fp)
    13b8:	017fffc4 	movi	r5,-1
    13bc:	103ee83a 	callr	r2

	/* Call progress monitor hook if present */
	if (cinfo->progress != NULL) {
    13c0:	e0bffd17 	ldw	r2,-12(fp)
    13c4:	10800217 	ldw	r2,8(r2)
    13c8:	1005003a 	cmpeq	r2,r2,zero
    13cc:	10000f1e 	bne	r2,zero,140c <jpeg_write_scanlines+0xec>
		cinfo->progress->pass_counter = (long) cinfo->next_scanline;
    13d0:	e0bffd17 	ldw	r2,-12(fp)
    13d4:	10c00217 	ldw	r3,8(r2)
    13d8:	e0bffd17 	ldw	r2,-12(fp)
    13dc:	10803c17 	ldw	r2,240(r2)
    13e0:	18800115 	stw	r2,4(r3)
		cinfo->progress->pass_limit = (long) cinfo->image_height;
    13e4:	e0bffd17 	ldw	r2,-12(fp)
    13e8:	10c00217 	ldw	r3,8(r2)
    13ec:	e0bffd17 	ldw	r2,-12(fp)
    13f0:	10800817 	ldw	r2,32(r2)
    13f4:	18800215 	stw	r2,8(r3)
		(*cinfo->progress->progress_monitor) ((j_common_ptr) cinfo);
    13f8:	e0bffd17 	ldw	r2,-12(fp)
    13fc:	10800217 	ldw	r2,8(r2)
    1400:	10800017 	ldw	r2,0(r2)
    1404:	e13ffd17 	ldw	r4,-12(fp)
    1408:	103ee83a 	callr	r2
	/* Give master control module another chance if this is first call to
	* jpeg_write_scanlines.  This lets output of the frame/scan headers be
	* delayed so that application can write COM, etc, markers between
	* jpeg_start_compress and jpeg_write_scanlines.
	*/
	if (cinfo->master->call_pass_startup)
    140c:	e0bffd17 	ldw	r2,-12(fp)
    1410:	10805c17 	ldw	r2,368(r2)
    1414:	10800303 	ldbu	r2,12(r2)
    1418:	10803fcc 	andi	r2,r2,255
    141c:	1005003a 	cmpeq	r2,r2,zero
    1420:	1000051e 	bne	r2,zero,1438 <jpeg_write_scanlines+0x118>
		(*cinfo->master->pass_startup) (cinfo);
    1424:	e0bffd17 	ldw	r2,-12(fp)
    1428:	10805c17 	ldw	r2,368(r2)
    142c:	10800117 	ldw	r2,4(r2)
    1430:	e13ffd17 	ldw	r4,-12(fp)
    1434:	103ee83a 	callr	r2

	/* Ignore any extra scanlines at bottom of image. */
	rows_left = cinfo->image_height - cinfo->next_scanline;
    1438:	e0bffd17 	ldw	r2,-12(fp)
    143c:	10c00817 	ldw	r3,32(r2)
    1440:	e0bffd17 	ldw	r2,-12(fp)
    1444:	10803c17 	ldw	r2,240(r2)
    1448:	1885c83a 	sub	r2,r3,r2
    144c:	e0bffb15 	stw	r2,-20(fp)
	if (num_lines > rows_left)
    1450:	e0ffff17 	ldw	r3,-4(fp)
    1454:	e0bffb17 	ldw	r2,-20(fp)
    1458:	10c0022e 	bgeu	r2,r3,1464 <jpeg_write_scanlines+0x144>
		num_lines = rows_left;
    145c:	e0bffb17 	ldw	r2,-20(fp)
    1460:	e0bfff15 	stw	r2,-4(fp)

	row_ctr = 0;
    1464:	e03ffc15 	stw	zero,-16(fp)
	(*cinfo->main->process_data) (cinfo, scanlines, &row_ctr, num_lines);
    1468:	e0bffd17 	ldw	r2,-12(fp)
    146c:	10805d17 	ldw	r2,372(r2)
    1470:	10800117 	ldw	r2,4(r2)
    1474:	e1bffc04 	addi	r6,fp,-16
    1478:	e13ffd17 	ldw	r4,-12(fp)
    147c:	e17ffe17 	ldw	r5,-8(fp)
    1480:	e1ffff17 	ldw	r7,-4(fp)
    1484:	103ee83a 	callr	r2
	cinfo->next_scanline += row_ctr;
    1488:	e0bffd17 	ldw	r2,-12(fp)
    148c:	10c03c17 	ldw	r3,240(r2)
    1490:	e0bffc17 	ldw	r2,-16(fp)
    1494:	1887883a 	add	r3,r3,r2
    1498:	e0bffd17 	ldw	r2,-12(fp)
    149c:	10c03c15 	stw	r3,240(r2)
	return row_ctr;
    14a0:	e0bffc17 	ldw	r2,-16(fp)
}
    14a4:	e037883a 	mov	sp,fp
    14a8:	dfc00117 	ldw	ra,4(sp)
    14ac:	df000017 	ldw	fp,0(sp)
    14b0:	dec00204 	addi	sp,sp,8
    14b4:	f800283a 	ret

000014b8 <jpeg_write_raw_data>:
*/

GLOBAL(JDIMENSION)
	jpeg_write_raw_data (j_compress_ptr cinfo, JSAMPIMAGE data,
	JDIMENSION num_lines)
{
    14b8:	defff904 	addi	sp,sp,-28
    14bc:	dfc00615 	stw	ra,24(sp)
    14c0:	df000515 	stw	fp,20(sp)
    14c4:	df000504 	addi	fp,sp,20
    14c8:	e13ffc15 	stw	r4,-16(fp)
    14cc:	e17ffd15 	stw	r5,-12(fp)
    14d0:	e1bffe15 	stw	r6,-8(fp)
	JDIMENSION lines_per_iMCU_row;

	if (cinfo->global_state != CSTATE_RAW_OK)
    14d4:	e0bffc17 	ldw	r2,-16(fp)
    14d8:	10800517 	ldw	r2,20(r2)
    14dc:	108019a0 	cmpeqi	r2,r2,102
    14e0:	10000e1e 	bne	r2,zero,151c <jpeg_write_raw_data+0x64>
		ERREXIT1(cinfo, JERR_BAD_STATE, cinfo->global_state);
    14e4:	e0bffc17 	ldw	r2,-16(fp)
    14e8:	10c00017 	ldw	r3,0(r2)
    14ec:	00800544 	movi	r2,21
    14f0:	18800515 	stw	r2,20(r3)
    14f4:	e0bffc17 	ldw	r2,-16(fp)
    14f8:	10c00017 	ldw	r3,0(r2)
    14fc:	e0bffc17 	ldw	r2,-16(fp)
    1500:	10800517 	ldw	r2,20(r2)
    1504:	18800615 	stw	r2,24(r3)
    1508:	e0bffc17 	ldw	r2,-16(fp)
    150c:	10800017 	ldw	r2,0(r2)
    1510:	10800017 	ldw	r2,0(r2)
    1514:	e13ffc17 	ldw	r4,-16(fp)
    1518:	103ee83a 	callr	r2
	if (cinfo->next_scanline >= cinfo->image_height) {
    151c:	e0bffc17 	ldw	r2,-16(fp)
    1520:	10c03c17 	ldw	r3,240(r2)
    1524:	e0bffc17 	ldw	r2,-16(fp)
    1528:	10800817 	ldw	r2,32(r2)
    152c:	18800c36 	bltu	r3,r2,1560 <jpeg_write_raw_data+0xa8>
		WARNMS(cinfo, JWRN_TOO_MUCH_DATA);
    1530:	e0bffc17 	ldw	r2,-16(fp)
    1534:	10c00017 	ldw	r3,0(r2)
    1538:	00801f84 	movi	r2,126
    153c:	18800515 	stw	r2,20(r3)
    1540:	e0bffc17 	ldw	r2,-16(fp)
    1544:	10800017 	ldw	r2,0(r2)
    1548:	10800117 	ldw	r2,4(r2)
    154c:	e13ffc17 	ldw	r4,-16(fp)
    1550:	017fffc4 	movi	r5,-1
    1554:	103ee83a 	callr	r2
		return 0;
    1558:	e03fff15 	stw	zero,-4(fp)
    155c:	00004106 	br	1664 <jpeg_write_raw_data+0x1ac>
	}

	/* Call progress monitor hook if present */
	if (cinfo->progress != NULL) {
    1560:	e0bffc17 	ldw	r2,-16(fp)
    1564:	10800217 	ldw	r2,8(r2)
    1568:	1005003a 	cmpeq	r2,r2,zero
    156c:	10000f1e 	bne	r2,zero,15ac <jpeg_write_raw_data+0xf4>
		cinfo->progress->pass_counter = (long) cinfo->next_scanline;
    1570:	e0bffc17 	ldw	r2,-16(fp)
    1574:	10c00217 	ldw	r3,8(r2)
    1578:	e0bffc17 	ldw	r2,-16(fp)
    157c:	10803c17 	ldw	r2,240(r2)
    1580:	18800115 	stw	r2,4(r3)
		cinfo->progress->pass_limit = (long) cinfo->image_height;
    1584:	e0bffc17 	ldw	r2,-16(fp)
    1588:	10c00217 	ldw	r3,8(r2)
    158c:	e0bffc17 	ldw	r2,-16(fp)
    1590:	10800817 	ldw	r2,32(r2)
    1594:	18800215 	stw	r2,8(r3)
		(*cinfo->progress->progress_monitor) ((j_common_ptr) cinfo);
    1598:	e0bffc17 	ldw	r2,-16(fp)
    159c:	10800217 	ldw	r2,8(r2)
    15a0:	10800017 	ldw	r2,0(r2)
    15a4:	e13ffc17 	ldw	r4,-16(fp)
    15a8:	103ee83a 	callr	r2
	/* Give master control module another chance if this is first call to
	* jpeg_write_raw_data.  This lets output of the frame/scan headers be
	* delayed so that application can write COM, etc, markers between
	* jpeg_start_compress and jpeg_write_raw_data.
	*/
	if (cinfo->master->call_pass_startup)
    15ac:	e0bffc17 	ldw	r2,-16(fp)
    15b0:	10805c17 	ldw	r2,368(r2)
    15b4:	10800303 	ldbu	r2,12(r2)
    15b8:	10803fcc 	andi	r2,r2,255
    15bc:	1005003a 	cmpeq	r2,r2,zero
    15c0:	1000051e 	bne	r2,zero,15d8 <jpeg_write_raw_data+0x120>
		(*cinfo->master->pass_startup) (cinfo);
    15c4:	e0bffc17 	ldw	r2,-16(fp)
    15c8:	10805c17 	ldw	r2,368(r2)
    15cc:	10800117 	ldw	r2,4(r2)
    15d0:	e13ffc17 	ldw	r4,-16(fp)
    15d4:	103ee83a 	callr	r2

	/* Verify that at least one iMCU row has been passed. */
	lines_per_iMCU_row = cinfo->max_v_samp_factor * DCTSIZE;
    15d8:	e0bffc17 	ldw	r2,-16(fp)
    15dc:	10803f17 	ldw	r2,252(r2)
    15e0:	100490fa 	slli	r2,r2,3
    15e4:	e0bffb15 	stw	r2,-20(fp)
	if (num_lines < lines_per_iMCU_row)
    15e8:	e0fffe17 	ldw	r3,-8(fp)
    15ec:	e0bffb17 	ldw	r2,-20(fp)
    15f0:	1880092e 	bgeu	r3,r2,1618 <jpeg_write_raw_data+0x160>
		ERREXIT(cinfo, JERR_BUFFER_SIZE);
    15f4:	e0bffc17 	ldw	r2,-16(fp)
    15f8:	10c00017 	ldw	r3,0(r2)
    15fc:	00800604 	movi	r2,24
    1600:	18800515 	stw	r2,20(r3)
    1604:	e0bffc17 	ldw	r2,-16(fp)
    1608:	10800017 	ldw	r2,0(r2)
    160c:	10800017 	ldw	r2,0(r2)
    1610:	e13ffc17 	ldw	r4,-16(fp)
    1614:	103ee83a 	callr	r2

	/* Directly compress the row. */
	if (! (*cinfo->coef->compress_data) (cinfo, data)) {
    1618:	e0bffc17 	ldw	r2,-16(fp)
    161c:	10805f17 	ldw	r2,380(r2)
    1620:	10800117 	ldw	r2,4(r2)
    1624:	e13ffc17 	ldw	r4,-16(fp)
    1628:	e17ffd17 	ldw	r5,-12(fp)
    162c:	103ee83a 	callr	r2
    1630:	10803fcc 	andi	r2,r2,255
    1634:	1004c03a 	cmpne	r2,r2,zero
    1638:	1000021e 	bne	r2,zero,1644 <jpeg_write_raw_data+0x18c>
		/* If compressor did not consume the whole row, suspend processing. */
		return 0;
    163c:	e03fff15 	stw	zero,-4(fp)
    1640:	00000806 	br	1664 <jpeg_write_raw_data+0x1ac>
	}

	/* OK, we processed one iMCU row. */
	cinfo->next_scanline += lines_per_iMCU_row;
    1644:	e0bffc17 	ldw	r2,-16(fp)
    1648:	10c03c17 	ldw	r3,240(r2)
    164c:	e0bffb17 	ldw	r2,-20(fp)
    1650:	1887883a 	add	r3,r3,r2
    1654:	e0bffc17 	ldw	r2,-16(fp)
    1658:	10c03c15 	stw	r3,240(r2)
	return lines_per_iMCU_row;
    165c:	e0bffb17 	ldw	r2,-20(fp)
    1660:	e0bfff15 	stw	r2,-4(fp)
    1664:	e0bfff17 	ldw	r2,-4(fp)
}
    1668:	e037883a 	mov	sp,fp
    166c:	dfc00117 	ldw	ra,4(sp)
    1670:	df000017 	ldw	fp,0(sp)
    1674:	dec00204 	addi	sp,sp,8
    1678:	f800283a 	ret

0000167c <emit_byte>:


LOCAL(void)
	emit_byte (int val, j_compress_ptr cinfo)
	/* Write next output byte; we do not support suspension in this module. */
{
    167c:	defffb04 	addi	sp,sp,-20
    1680:	dfc00415 	stw	ra,16(sp)
    1684:	df000315 	stw	fp,12(sp)
    1688:	df000304 	addi	fp,sp,12
    168c:	e13ffe15 	stw	r4,-8(fp)
    1690:	e17fff15 	stw	r5,-4(fp)
	struct jpeg_destination_mgr * dest = cinfo->dest;
    1694:	e0bfff17 	ldw	r2,-4(fp)
    1698:	10800617 	ldw	r2,24(r2)
    169c:	e0bffd15 	stw	r2,-12(fp)

	*dest->next_output_byte++ = (JOCTET) val;
    16a0:	e0bffd17 	ldw	r2,-12(fp)
    16a4:	10c00017 	ldw	r3,0(r2)
    16a8:	e0bffe17 	ldw	r2,-8(fp)
    16ac:	18800005 	stb	r2,0(r3)
    16b0:	18c00044 	addi	r3,r3,1
    16b4:	e0bffd17 	ldw	r2,-12(fp)
    16b8:	10c00015 	stw	r3,0(r2)
	if (--dest->free_in_buffer == 0)
    16bc:	e0bffd17 	ldw	r2,-12(fp)
    16c0:	10800117 	ldw	r2,4(r2)
    16c4:	10ffffc4 	addi	r3,r2,-1
    16c8:	e0bffd17 	ldw	r2,-12(fp)
    16cc:	10c00115 	stw	r3,4(r2)
    16d0:	e0bffd17 	ldw	r2,-12(fp)
    16d4:	10800117 	ldw	r2,4(r2)
    16d8:	1004c03a 	cmpne	r2,r2,zero
    16dc:	1000101e 	bne	r2,zero,1720 <emit_byte+0xa4>
		if (! (*dest->empty_output_buffer) (cinfo))
    16e0:	e0bffd17 	ldw	r2,-12(fp)
    16e4:	10800317 	ldw	r2,12(r2)
    16e8:	e13fff17 	ldw	r4,-4(fp)
    16ec:	103ee83a 	callr	r2
    16f0:	10803fcc 	andi	r2,r2,255
    16f4:	1004c03a 	cmpne	r2,r2,zero
    16f8:	1000091e 	bne	r2,zero,1720 <emit_byte+0xa4>
			ERREXIT(cinfo, JERR_CANT_SUSPEND);
    16fc:	e0bfff17 	ldw	r2,-4(fp)
    1700:	10c00017 	ldw	r3,0(r2)
    1704:	00800644 	movi	r2,25
    1708:	18800515 	stw	r2,20(r3)
    170c:	e0bfff17 	ldw	r2,-4(fp)
    1710:	10800017 	ldw	r2,0(r2)
    1714:	10800017 	ldw	r2,0(r2)
    1718:	e13fff17 	ldw	r4,-4(fp)
    171c:	103ee83a 	callr	r2
}
    1720:	e037883a 	mov	sp,fp
    1724:	dfc00117 	ldw	ra,4(sp)
    1728:	df000017 	ldw	fp,0(sp)
    172c:	dec00204 	addi	sp,sp,8
    1730:	f800283a 	ret

00001734 <finish_pass>:
* Finish up at the end of an arithmetic-compressed scan.
*/

METHODDEF(void)
	finish_pass (j_compress_ptr cinfo)
{
    1734:	defffb04 	addi	sp,sp,-20
    1738:	dfc00415 	stw	ra,16(sp)
    173c:	df000315 	stw	fp,12(sp)
    1740:	df000304 	addi	fp,sp,12
    1744:	e13fff15 	stw	r4,-4(fp)
	arith_entropy_ptr e = (arith_entropy_ptr) cinfo->entropy;
    1748:	e0bfff17 	ldw	r2,-4(fp)
    174c:	10806417 	ldw	r2,400(r2)
    1750:	e0bffe15 	stw	r2,-8(fp)

	/* Section D.1.8: Termination of encoding */

	/* Find the e->c in the coding interval with the largest
	* number of trailing zero bits */
	if ((temp = (e->a - 1 + e->c) & 0xFFFF0000L) < e->c)
    1754:	e0bffe17 	ldw	r2,-8(fp)
    1758:	10c00417 	ldw	r3,16(r2)
    175c:	e0bffe17 	ldw	r2,-8(fp)
    1760:	10800317 	ldw	r2,12(r2)
    1764:	1885883a 	add	r2,r3,r2
    1768:	10bfffc4 	addi	r2,r2,-1
    176c:	10bfffec 	andhi	r2,r2,65535
    1770:	e0bffd15 	stw	r2,-12(fp)
    1774:	e0bffe17 	ldw	r2,-8(fp)
    1778:	10c00317 	ldw	r3,12(r2)
    177c:	e0bffd17 	ldw	r2,-12(fp)
    1780:	10c0060e 	bge	r2,r3,179c <finish_pass+0x68>
		e->c = temp + 0x8000L;
    1784:	e0fffd17 	ldw	r3,-12(fp)
    1788:	00a00014 	movui	r2,32768
    178c:	1887883a 	add	r3,r3,r2
    1790:	e0bffe17 	ldw	r2,-8(fp)
    1794:	10c00315 	stw	r3,12(r2)
    1798:	00000306 	br	17a8 <finish_pass+0x74>
	else
		e->c = temp;
    179c:	e0fffe17 	ldw	r3,-8(fp)
    17a0:	e0bffd17 	ldw	r2,-12(fp)
    17a4:	18800315 	stw	r2,12(r3)
	/* Send remaining bytes to output */
	e->c <<= e->ct;
    17a8:	e0bffe17 	ldw	r2,-8(fp)
    17ac:	10c00317 	ldw	r3,12(r2)
    17b0:	e0bffe17 	ldw	r2,-8(fp)
    17b4:	10800717 	ldw	r2,28(r2)
    17b8:	1886983a 	sll	r3,r3,r2
    17bc:	e0bffe17 	ldw	r2,-8(fp)
    17c0:	10c00315 	stw	r3,12(r2)
	if (e->c & 0xF8000000L) {
    17c4:	e0bffe17 	ldw	r2,-8(fp)
    17c8:	10800317 	ldw	r2,12(r2)
    17cc:	10be002c 	andhi	r2,r2,63488
    17d0:	1005003a 	cmpeq	r2,r2,zero
    17d4:	10002a1e 	bne	r2,zero,1880 <finish_pass+0x14c>
		/* One final overflow has to be handled */
		if (e->buffer >= 0) {
    17d8:	e0bffe17 	ldw	r2,-8(fp)
    17dc:	10800817 	ldw	r2,32(r2)
    17e0:	1004803a 	cmplt	r2,r2,zero
    17e4:	10001c1e 	bne	r2,zero,1858 <finish_pass+0x124>
			if (e->zc)
    17e8:	e0bffe17 	ldw	r2,-8(fp)
    17ec:	10800617 	ldw	r2,24(r2)
    17f0:	1005003a 	cmpeq	r2,r2,zero
    17f4:	10000c1e 	bne	r2,zero,1828 <finish_pass+0xf4>
				do emit_byte(0x00, cinfo);
    17f8:	0009883a 	mov	r4,zero
    17fc:	e17fff17 	ldw	r5,-4(fp)
    1800:	000167c0 	call	167c <emit_byte>
			while (--e->zc);
    1804:	e0bffe17 	ldw	r2,-8(fp)
    1808:	10800617 	ldw	r2,24(r2)
    180c:	10ffffc4 	addi	r3,r2,-1
    1810:	e0bffe17 	ldw	r2,-8(fp)
    1814:	10c00615 	stw	r3,24(r2)
    1818:	e0bffe17 	ldw	r2,-8(fp)
    181c:	10800617 	ldw	r2,24(r2)
    1820:	1004c03a 	cmpne	r2,r2,zero
    1824:	103ff41e 	bne	r2,zero,17f8 <finish_pass+0xc4>
			emit_byte(e->buffer + 1, cinfo);
    1828:	e0bffe17 	ldw	r2,-8(fp)
    182c:	10800817 	ldw	r2,32(r2)
    1830:	11000044 	addi	r4,r2,1
    1834:	e17fff17 	ldw	r5,-4(fp)
    1838:	000167c0 	call	167c <emit_byte>
			if (e->buffer + 1 == 0xFF)
    183c:	e0bffe17 	ldw	r2,-8(fp)
    1840:	10800817 	ldw	r2,32(r2)
    1844:	10803f98 	cmpnei	r2,r2,254
    1848:	1000031e 	bne	r2,zero,1858 <finish_pass+0x124>
				emit_byte(0x00, cinfo);
    184c:	0009883a 	mov	r4,zero
    1850:	e17fff17 	ldw	r5,-4(fp)
    1854:	000167c0 	call	167c <emit_byte>
		}
		e->zc += e->sc;  /* carry-over converts stacked 0xFF bytes to 0x00 */
    1858:	e0bffe17 	ldw	r2,-8(fp)
    185c:	10c00617 	ldw	r3,24(r2)
    1860:	e0bffe17 	ldw	r2,-8(fp)
    1864:	10800517 	ldw	r2,20(r2)
    1868:	1887883a 	add	r3,r3,r2
    186c:	e0bffe17 	ldw	r2,-8(fp)
    1870:	10c00615 	stw	r3,24(r2)
		e->sc = 0;
    1874:	e0bffe17 	ldw	r2,-8(fp)
    1878:	10000515 	stw	zero,20(r2)
    187c:	00004506 	br	1994 <finish_pass+0x260>
	} else {
		if (e->buffer == 0)
    1880:	e0bffe17 	ldw	r2,-8(fp)
    1884:	10800817 	ldw	r2,32(r2)
    1888:	1004c03a 	cmpne	r2,r2,zero
    188c:	1000061e 	bne	r2,zero,18a8 <finish_pass+0x174>
			++e->zc;
    1890:	e0bffe17 	ldw	r2,-8(fp)
    1894:	10800617 	ldw	r2,24(r2)
    1898:	10c00044 	addi	r3,r2,1
    189c:	e0bffe17 	ldw	r2,-8(fp)
    18a0:	10c00615 	stw	r3,24(r2)
    18a4:	00001806 	br	1908 <finish_pass+0x1d4>
		else if (e->buffer >= 0) {
    18a8:	e0bffe17 	ldw	r2,-8(fp)
    18ac:	10800817 	ldw	r2,32(r2)
    18b0:	1004803a 	cmplt	r2,r2,zero
    18b4:	1000141e 	bne	r2,zero,1908 <finish_pass+0x1d4>
			if (e->zc)
    18b8:	e0bffe17 	ldw	r2,-8(fp)
    18bc:	10800617 	ldw	r2,24(r2)
    18c0:	1005003a 	cmpeq	r2,r2,zero
    18c4:	10000c1e 	bne	r2,zero,18f8 <finish_pass+0x1c4>
				do emit_byte(0x00, cinfo);
    18c8:	0009883a 	mov	r4,zero
    18cc:	e17fff17 	ldw	r5,-4(fp)
    18d0:	000167c0 	call	167c <emit_byte>
			while (--e->zc);
    18d4:	e0bffe17 	ldw	r2,-8(fp)
    18d8:	10800617 	ldw	r2,24(r2)
    18dc:	10ffffc4 	addi	r3,r2,-1
    18e0:	e0bffe17 	ldw	r2,-8(fp)
    18e4:	10c00615 	stw	r3,24(r2)
    18e8:	e0bffe17 	ldw	r2,-8(fp)
    18ec:	10800617 	ldw	r2,24(r2)
    18f0:	1004c03a 	cmpne	r2,r2,zero
    18f4:	103ff41e 	bne	r2,zero,18c8 <finish_pass+0x194>
			emit_byte(e->buffer, cinfo);
    18f8:	e0bffe17 	ldw	r2,-8(fp)
    18fc:	11000817 	ldw	r4,32(r2)
    1900:	e17fff17 	ldw	r5,-4(fp)
    1904:	000167c0 	call	167c <emit_byte>
		}
		if (e->sc) {
    1908:	e0bffe17 	ldw	r2,-8(fp)
    190c:	10800517 	ldw	r2,20(r2)
    1910:	1005003a 	cmpeq	r2,r2,zero
    1914:	10001f1e 	bne	r2,zero,1994 <finish_pass+0x260>
			if (e->zc)
    1918:	e0bffe17 	ldw	r2,-8(fp)
    191c:	10800617 	ldw	r2,24(r2)
    1920:	1005003a 	cmpeq	r2,r2,zero
    1924:	10000c1e 	bne	r2,zero,1958 <finish_pass+0x224>
				do emit_byte(0x00, cinfo);
    1928:	0009883a 	mov	r4,zero
    192c:	e17fff17 	ldw	r5,-4(fp)
    1930:	000167c0 	call	167c <emit_byte>
			while (--e->zc);
    1934:	e0bffe17 	ldw	r2,-8(fp)
    1938:	10800617 	ldw	r2,24(r2)
    193c:	10ffffc4 	addi	r3,r2,-1
    1940:	e0bffe17 	ldw	r2,-8(fp)
    1944:	10c00615 	stw	r3,24(r2)
    1948:	e0bffe17 	ldw	r2,-8(fp)
    194c:	10800617 	ldw	r2,24(r2)
    1950:	1004c03a 	cmpne	r2,r2,zero
    1954:	103ff41e 	bne	r2,zero,1928 <finish_pass+0x1f4>
			do {
				emit_byte(0xFF, cinfo);
    1958:	01003fc4 	movi	r4,255
    195c:	e17fff17 	ldw	r5,-4(fp)
    1960:	000167c0 	call	167c <emit_byte>
				emit_byte(0x00, cinfo);
    1964:	0009883a 	mov	r4,zero
    1968:	e17fff17 	ldw	r5,-4(fp)
    196c:	000167c0 	call	167c <emit_byte>
			} while (--e->sc);
    1970:	e0bffe17 	ldw	r2,-8(fp)
    1974:	10800517 	ldw	r2,20(r2)
    1978:	10ffffc4 	addi	r3,r2,-1
    197c:	e0bffe17 	ldw	r2,-8(fp)
    1980:	10c00515 	stw	r3,20(r2)
    1984:	e0bffe17 	ldw	r2,-8(fp)
    1988:	10800517 	ldw	r2,20(r2)
    198c:	1004c03a 	cmpne	r2,r2,zero
    1990:	103ff11e 	bne	r2,zero,1958 <finish_pass+0x224>
		}
	}
	/* Output final bytes only if they are not 0x00 */
	if (e->c & 0x7FFF800L) {
    1994:	e0bffe17 	ldw	r2,-8(fp)
    1998:	10c00317 	ldw	r3,12(r2)
    199c:	00820034 	movhi	r2,2048
    19a0:	10be0004 	addi	r2,r2,-2048
    19a4:	1884703a 	and	r2,r3,r2
    19a8:	1005003a 	cmpeq	r2,r2,zero
    19ac:	1000351e 	bne	r2,zero,1a84 <finish_pass+0x350>
		if (e->zc)  /* output final pending zero bytes */
    19b0:	e0bffe17 	ldw	r2,-8(fp)
    19b4:	10800617 	ldw	r2,24(r2)
    19b8:	1005003a 	cmpeq	r2,r2,zero
    19bc:	10000c1e 	bne	r2,zero,19f0 <finish_pass+0x2bc>
			do emit_byte(0x00, cinfo);
    19c0:	0009883a 	mov	r4,zero
    19c4:	e17fff17 	ldw	r5,-4(fp)
    19c8:	000167c0 	call	167c <emit_byte>
		while (--e->zc);
    19cc:	e0bffe17 	ldw	r2,-8(fp)
    19d0:	10800617 	ldw	r2,24(r2)
    19d4:	10ffffc4 	addi	r3,r2,-1
    19d8:	e0bffe17 	ldw	r2,-8(fp)
    19dc:	10c00615 	stw	r3,24(r2)
    19e0:	e0bffe17 	ldw	r2,-8(fp)
    19e4:	10800617 	ldw	r2,24(r2)
    19e8:	1004c03a 	cmpne	r2,r2,zero
    19ec:	103ff41e 	bne	r2,zero,19c0 <finish_pass+0x28c>
		emit_byte((e->c >> 19) & 0xFF, cinfo);
    19f0:	e0bffe17 	ldw	r2,-8(fp)
    19f4:	10800317 	ldw	r2,12(r2)
    19f8:	1005d4fa 	srai	r2,r2,19
    19fc:	11003fcc 	andi	r4,r2,255
    1a00:	e17fff17 	ldw	r5,-4(fp)
    1a04:	000167c0 	call	167c <emit_byte>
		if (((e->c >> 19) & 0xFF) == 0xFF)
    1a08:	e0bffe17 	ldw	r2,-8(fp)
    1a0c:	10800317 	ldw	r2,12(r2)
    1a10:	1005d4fa 	srai	r2,r2,19
    1a14:	10803fcc 	andi	r2,r2,255
    1a18:	10803fd8 	cmpnei	r2,r2,255
    1a1c:	1000031e 	bne	r2,zero,1a2c <finish_pass+0x2f8>
			emit_byte(0x00, cinfo);
    1a20:	0009883a 	mov	r4,zero
    1a24:	e17fff17 	ldw	r5,-4(fp)
    1a28:	000167c0 	call	167c <emit_byte>
		if (e->c & 0x7F800L) {
    1a2c:	e0bffe17 	ldw	r2,-8(fp)
    1a30:	10c00317 	ldw	r3,12(r2)
    1a34:	00800234 	movhi	r2,8
    1a38:	10be0004 	addi	r2,r2,-2048
    1a3c:	1884703a 	and	r2,r3,r2
    1a40:	1005003a 	cmpeq	r2,r2,zero
    1a44:	10000f1e 	bne	r2,zero,1a84 <finish_pass+0x350>
			emit_byte((e->c >> 11) & 0xFF, cinfo);
    1a48:	e0bffe17 	ldw	r2,-8(fp)
    1a4c:	10800317 	ldw	r2,12(r2)
    1a50:	1005d2fa 	srai	r2,r2,11
    1a54:	11003fcc 	andi	r4,r2,255
    1a58:	e17fff17 	ldw	r5,-4(fp)
    1a5c:	000167c0 	call	167c <emit_byte>
			if (((e->c >> 11) & 0xFF) == 0xFF)
    1a60:	e0bffe17 	ldw	r2,-8(fp)
    1a64:	10800317 	ldw	r2,12(r2)
    1a68:	1005d2fa 	srai	r2,r2,11
    1a6c:	10803fcc 	andi	r2,r2,255
    1a70:	10803fd8 	cmpnei	r2,r2,255
    1a74:	1000031e 	bne	r2,zero,1a84 <finish_pass+0x350>
				emit_byte(0x00, cinfo);
    1a78:	0009883a 	mov	r4,zero
    1a7c:	e17fff17 	ldw	r5,-4(fp)
    1a80:	000167c0 	call	167c <emit_byte>
		}
	}
}
    1a84:	e037883a 	mov	sp,fp
    1a88:	dfc00117 	ldw	ra,4(sp)
    1a8c:	df000017 	ldw	fp,0(sp)
    1a90:	dec00204 	addi	sp,sp,8
    1a94:	f800283a 	ret

00001a98 <arith_encode>:
* derived from Markus Kuhn's JBIG implementation.
*/

LOCAL(void)
	arith_encode (j_compress_ptr cinfo, unsigned char *st, int val) 
{
    1a98:	defff604 	addi	sp,sp,-40
    1a9c:	dfc00915 	stw	ra,36(sp)
    1aa0:	df000815 	stw	fp,32(sp)
    1aa4:	df000804 	addi	fp,sp,32
    1aa8:	e13ff815 	stw	r4,-32(fp)
    1aac:	e17ff915 	stw	r5,-28(fp)
    1ab0:	e1bffa15 	stw	r6,-24(fp)
	register arith_entropy_ptr e = (arith_entropy_ptr) cinfo->entropy;
    1ab4:	e0bff817 	ldw	r2,-32(fp)
    1ab8:	10806417 	ldw	r2,400(r2)
    1abc:	e0bfff15 	stw	r2,-4(fp)
	register int sv;

	/* Fetch values from our compact representation of Table D.2:
	* Qe values and probability estimation state machine
	*/
	sv = *st;
    1ac0:	e0bff917 	ldw	r2,-28(fp)
    1ac4:	10800003 	ldbu	r2,0(r2)
    1ac8:	10803fcc 	andi	r2,r2,255
    1acc:	e0bffb15 	stw	r2,-20(fp)
	qe = jpeg_aritab[sv & 0x7F];	/* => Qe_Value */
    1ad0:	e0fffb17 	ldw	r3,-20(fp)
    1ad4:	18801fcc 	andi	r2,r3,127
    1ad8:	00c00134 	movhi	r3,4
    1adc:	18f92e04 	addi	r3,r3,-6984
    1ae0:	1085883a 	add	r2,r2,r2
    1ae4:	1085883a 	add	r2,r2,r2
    1ae8:	10c5883a 	add	r2,r2,r3
    1aec:	10800017 	ldw	r2,0(r2)
    1af0:	e0bffd15 	stw	r2,-12(fp)
	nl = qe & 0xFF; qe >>= 8;	/* Next_Index_LPS + Switch_MPS */
    1af4:	e13ffd17 	ldw	r4,-12(fp)
    1af8:	2005883a 	mov	r2,r4
    1afc:	1007883a 	mov	r3,r2
    1b00:	00bfffc4 	movi	r2,-1
    1b04:	1884703a 	and	r2,r3,r2
    1b08:	e0bffe45 	stb	r2,-7(fp)
    1b0c:	e0bffd17 	ldw	r2,-12(fp)
    1b10:	1005d23a 	srai	r2,r2,8
    1b14:	e0bffd15 	stw	r2,-12(fp)
	nm = qe & 0xFF; qe >>= 8;	/* Next_Index_MPS */
    1b18:	e0fffd17 	ldw	r3,-12(fp)
    1b1c:	1805883a 	mov	r2,r3
    1b20:	1007883a 	mov	r3,r2
    1b24:	00bfffc4 	movi	r2,-1
    1b28:	1884703a 	and	r2,r3,r2
    1b2c:	e0bffe05 	stb	r2,-8(fp)
    1b30:	e13ffd17 	ldw	r4,-12(fp)
    1b34:	2009d23a 	srai	r4,r4,8
    1b38:	e13ffd15 	stw	r4,-12(fp)

	/* Encode & estimation procedures per sections D.1.4 & D.1.5 */
	e->a -= qe;
    1b3c:	e0ffff17 	ldw	r3,-4(fp)
    1b40:	18800417 	ldw	r2,16(r3)
    1b44:	e13ffd17 	ldw	r4,-12(fp)
    1b48:	1105c83a 	sub	r2,r2,r4
    1b4c:	e0ffff17 	ldw	r3,-4(fp)
    1b50:	18800415 	stw	r2,16(r3)
	if (val != (sv >> 7)) {
    1b54:	e13ffb17 	ldw	r4,-20(fp)
    1b58:	2007d1fa 	srai	r3,r4,7
    1b5c:	e0bffa17 	ldw	r2,-24(fp)
    1b60:	18801926 	beq	r3,r2,1bc8 <arith_encode+0x130>
		/* Encode the less probable symbol */
		if (e->a >= qe) {
    1b64:	e0ffff17 	ldw	r3,-4(fp)
    1b68:	18800417 	ldw	r2,16(r3)
    1b6c:	e13ffd17 	ldw	r4,-12(fp)
    1b70:	11000a16 	blt	r2,r4,1b9c <arith_encode+0x104>
			/* If the interval size (qe) for the less probable symbol (LPS)
			* is larger than the interval size for the MPS, then exchange
			* the two symbols for coding efficiency, otherwise code the LPS
			* as usual: */
			e->c += e->a;
    1b74:	e0ffff17 	ldw	r3,-4(fp)
    1b78:	18800317 	ldw	r2,12(r3)
    1b7c:	e13fff17 	ldw	r4,-4(fp)
    1b80:	20c00417 	ldw	r3,16(r4)
    1b84:	10c5883a 	add	r2,r2,r3
    1b88:	e0ffff17 	ldw	r3,-4(fp)
    1b8c:	18800315 	stw	r2,12(r3)
			e->a = qe;
    1b90:	e13ffd17 	ldw	r4,-12(fp)
    1b94:	e0bfff17 	ldw	r2,-4(fp)
    1b98:	11000415 	stw	r4,16(r2)
		}
		*st = (sv & 0x80) ^ nl;	/* Estimate_after_LPS */
    1b9c:	e13ffb17 	ldw	r4,-20(fp)
    1ba0:	2007883a 	mov	r3,r4
    1ba4:	00bfe004 	movi	r2,-128
    1ba8:	1884703a 	and	r2,r3,r2
    1bac:	1007883a 	mov	r3,r2
    1bb0:	e0bffe43 	ldbu	r2,-7(fp)
    1bb4:	1884f03a 	xor	r2,r3,r2
    1bb8:	1007883a 	mov	r3,r2
    1bbc:	e0bff917 	ldw	r2,-28(fp)
    1bc0:	10c00005 	stb	r3,0(r2)
    1bc4:	00001c06 	br	1c38 <arith_encode+0x1a0>
	} else {
		/* Encode the more probable symbol */
		if (e->a >= 0x8000L)
    1bc8:	e0bfff17 	ldw	r2,-4(fp)
    1bcc:	10c00417 	ldw	r3,16(r2)
    1bd0:	009fffc4 	movi	r2,32767
    1bd4:	10c0c216 	blt	r2,r3,1ee0 <arith_encode+0x448>
			return;  /* A >= 0x8000 -> ready, no renormalization required */
		if (e->a < qe) {
    1bd8:	e0ffff17 	ldw	r3,-4(fp)
    1bdc:	18800417 	ldw	r2,16(r3)
    1be0:	e13ffd17 	ldw	r4,-12(fp)
    1be4:	11000a0e 	bge	r2,r4,1c10 <arith_encode+0x178>
			/* If the interval size (qe) for the less probable symbol (LPS)
			* is larger than the interval size for the MPS, then exchange
			* the two symbols for coding efficiency: */
			e->c += e->a;
    1be8:	e0ffff17 	ldw	r3,-4(fp)
    1bec:	18800317 	ldw	r2,12(r3)
    1bf0:	e13fff17 	ldw	r4,-4(fp)
    1bf4:	20c00417 	ldw	r3,16(r4)
    1bf8:	10c5883a 	add	r2,r2,r3
    1bfc:	e0ffff17 	ldw	r3,-4(fp)
    1c00:	18800315 	stw	r2,12(r3)
			e->a = qe;
    1c04:	e13ffd17 	ldw	r4,-12(fp)
    1c08:	e0bfff17 	ldw	r2,-4(fp)
    1c0c:	11000415 	stw	r4,16(r2)
		}
		*st = (sv & 0x80) ^ nm;	/* Estimate_after_MPS */
    1c10:	e13ffb17 	ldw	r4,-20(fp)
    1c14:	2007883a 	mov	r3,r4
    1c18:	00bfe004 	movi	r2,-128
    1c1c:	1884703a 	and	r2,r3,r2
    1c20:	1007883a 	mov	r3,r2
    1c24:	e0bffe03 	ldbu	r2,-8(fp)
    1c28:	1884f03a 	xor	r2,r3,r2
    1c2c:	1007883a 	mov	r3,r2
    1c30:	e0bff917 	ldw	r2,-28(fp)
    1c34:	10c00005 	stb	r3,0(r2)
	}

	/* Renormalization & data output per section D.1.6 */
	do {
		e->a <<= 1;
    1c38:	e0ffff17 	ldw	r3,-4(fp)
    1c3c:	18800417 	ldw	r2,16(r3)
    1c40:	1085883a 	add	r2,r2,r2
    1c44:	e13fff17 	ldw	r4,-4(fp)
    1c48:	20800415 	stw	r2,16(r4)
		e->c <<= 1;
    1c4c:	e0ffff17 	ldw	r3,-4(fp)
    1c50:	18800317 	ldw	r2,12(r3)
    1c54:	1085883a 	add	r2,r2,r2
    1c58:	e13fff17 	ldw	r4,-4(fp)
    1c5c:	20800315 	stw	r2,12(r4)
		if (--e->ct == 0) {
    1c60:	e0ffff17 	ldw	r3,-4(fp)
    1c64:	18800717 	ldw	r2,28(r3)
    1c68:	10bfffc4 	addi	r2,r2,-1
    1c6c:	e13fff17 	ldw	r4,-4(fp)
    1c70:	20800715 	stw	r2,28(r4)
    1c74:	e0ffff17 	ldw	r3,-4(fp)
    1c78:	18800717 	ldw	r2,28(r3)
    1c7c:	1004c03a 	cmpne	r2,r2,zero
    1c80:	1000931e 	bne	r2,zero,1ed0 <arith_encode+0x438>
			/* Another byte is ready for output */
			temp = e->c >> 19;
    1c84:	e13fff17 	ldw	r4,-4(fp)
    1c88:	20800317 	ldw	r2,12(r4)
    1c8c:	1005d4fa 	srai	r2,r2,19
    1c90:	e0bffc15 	stw	r2,-16(fp)
			if (temp > 0xFF) {
    1c94:	e0fffc17 	ldw	r3,-16(fp)
    1c98:	18804010 	cmplti	r2,r3,256
    1c9c:	10002e1e 	bne	r2,zero,1d58 <arith_encode+0x2c0>
				/* Handle overflow over all stacked 0xFF bytes */
				if (e->buffer >= 0) {
    1ca0:	e13fff17 	ldw	r4,-4(fp)
    1ca4:	20800817 	ldw	r2,32(r4)
    1ca8:	1004803a 	cmplt	r2,r2,zero
    1cac:	10001c1e 	bne	r2,zero,1d20 <arith_encode+0x288>
					if (e->zc)
    1cb0:	e0ffff17 	ldw	r3,-4(fp)
    1cb4:	18800617 	ldw	r2,24(r3)
    1cb8:	1005003a 	cmpeq	r2,r2,zero
    1cbc:	10000c1e 	bne	r2,zero,1cf0 <arith_encode+0x258>
						do emit_byte(0x00, cinfo);
    1cc0:	0009883a 	mov	r4,zero
    1cc4:	e17ff817 	ldw	r5,-32(fp)
    1cc8:	000167c0 	call	167c <emit_byte>
					while (--e->zc);
    1ccc:	e13fff17 	ldw	r4,-4(fp)
    1cd0:	20800617 	ldw	r2,24(r4)
    1cd4:	10bfffc4 	addi	r2,r2,-1
    1cd8:	e0ffff17 	ldw	r3,-4(fp)
    1cdc:	18800615 	stw	r2,24(r3)
    1ce0:	e13fff17 	ldw	r4,-4(fp)
    1ce4:	20800617 	ldw	r2,24(r4)
    1ce8:	1004c03a 	cmpne	r2,r2,zero
    1cec:	103ff41e 	bne	r2,zero,1cc0 <arith_encode+0x228>
					emit_byte(e->buffer + 1, cinfo);
    1cf0:	e0ffff17 	ldw	r3,-4(fp)
    1cf4:	18800817 	ldw	r2,32(r3)
    1cf8:	11000044 	addi	r4,r2,1
    1cfc:	e17ff817 	ldw	r5,-32(fp)
    1d00:	000167c0 	call	167c <emit_byte>
					if (e->buffer + 1 == 0xFF)
    1d04:	e13fff17 	ldw	r4,-4(fp)
    1d08:	20800817 	ldw	r2,32(r4)
    1d0c:	10803f98 	cmpnei	r2,r2,254
    1d10:	1000031e 	bne	r2,zero,1d20 <arith_encode+0x288>
						emit_byte(0x00, cinfo);
    1d14:	0009883a 	mov	r4,zero
    1d18:	e17ff817 	ldw	r5,-32(fp)
    1d1c:	000167c0 	call	167c <emit_byte>
				}
				e->zc += e->sc;  /* carry-over converts stacked 0xFF bytes to 0x00 */
    1d20:	e0bfff17 	ldw	r2,-4(fp)
    1d24:	10c00617 	ldw	r3,24(r2)
    1d28:	e13fff17 	ldw	r4,-4(fp)
    1d2c:	20800517 	ldw	r2,20(r4)
    1d30:	1885883a 	add	r2,r3,r2
    1d34:	e0ffff17 	ldw	r3,-4(fp)
    1d38:	18800615 	stw	r2,24(r3)
				e->sc = 0;
    1d3c:	e13fff17 	ldw	r4,-4(fp)
    1d40:	20000515 	stw	zero,20(r4)
				/* Note: The 3 spacer bits in the C register guarantee
				* that the new buffer byte can't be 0xFF here
				* (see page 160 in the P&M JPEG book). */
				e->buffer = temp & 0xFF;  /* new output byte, might overflow later */
    1d44:	e0fffc17 	ldw	r3,-16(fp)
    1d48:	18803fcc 	andi	r2,r3,255
    1d4c:	e13fff17 	ldw	r4,-4(fp)
    1d50:	20800815 	stw	r2,32(r4)
    1d54:	00005206 	br	1ea0 <arith_encode+0x408>
			} else if (temp == 0xFF) {
    1d58:	e0fffc17 	ldw	r3,-16(fp)
    1d5c:	18803fd8 	cmpnei	r2,r3,255
    1d60:	1000061e 	bne	r2,zero,1d7c <arith_encode+0x2e4>
				++e->sc;  /* stack 0xFF byte (which might overflow later) */
    1d64:	e13fff17 	ldw	r4,-4(fp)
    1d68:	20800517 	ldw	r2,20(r4)
    1d6c:	10800044 	addi	r2,r2,1
    1d70:	e0ffff17 	ldw	r3,-4(fp)
    1d74:	18800515 	stw	r2,20(r3)
    1d78:	00004906 	br	1ea0 <arith_encode+0x408>
			} else {
				/* Output all stacked 0xFF bytes, they will not overflow any more */
				if (e->buffer == 0)
    1d7c:	e13fff17 	ldw	r4,-4(fp)
    1d80:	20800817 	ldw	r2,32(r4)
    1d84:	1004c03a 	cmpne	r2,r2,zero
    1d88:	1000061e 	bne	r2,zero,1da4 <arith_encode+0x30c>
					++e->zc;
    1d8c:	e0ffff17 	ldw	r3,-4(fp)
    1d90:	18800617 	ldw	r2,24(r3)
    1d94:	10800044 	addi	r2,r2,1
    1d98:	e13fff17 	ldw	r4,-4(fp)
    1d9c:	20800615 	stw	r2,24(r4)
    1da0:	00001806 	br	1e04 <arith_encode+0x36c>
				else if (e->buffer >= 0) {
    1da4:	e0ffff17 	ldw	r3,-4(fp)
    1da8:	18800817 	ldw	r2,32(r3)
    1dac:	1004803a 	cmplt	r2,r2,zero
    1db0:	1000141e 	bne	r2,zero,1e04 <arith_encode+0x36c>
					if (e->zc)
    1db4:	e13fff17 	ldw	r4,-4(fp)
    1db8:	20800617 	ldw	r2,24(r4)
    1dbc:	1005003a 	cmpeq	r2,r2,zero
    1dc0:	10000c1e 	bne	r2,zero,1df4 <arith_encode+0x35c>
						do emit_byte(0x00, cinfo);
    1dc4:	0009883a 	mov	r4,zero
    1dc8:	e17ff817 	ldw	r5,-32(fp)
    1dcc:	000167c0 	call	167c <emit_byte>
					while (--e->zc);
    1dd0:	e0ffff17 	ldw	r3,-4(fp)
    1dd4:	18800617 	ldw	r2,24(r3)
    1dd8:	10bfffc4 	addi	r2,r2,-1
    1ddc:	e13fff17 	ldw	r4,-4(fp)
    1de0:	20800615 	stw	r2,24(r4)
    1de4:	e0ffff17 	ldw	r3,-4(fp)
    1de8:	18800617 	ldw	r2,24(r3)
    1dec:	1004c03a 	cmpne	r2,r2,zero
    1df0:	103ff41e 	bne	r2,zero,1dc4 <arith_encode+0x32c>
					emit_byte(e->buffer, cinfo);
    1df4:	e0bfff17 	ldw	r2,-4(fp)
    1df8:	11000817 	ldw	r4,32(r2)
    1dfc:	e17ff817 	ldw	r5,-32(fp)
    1e00:	000167c0 	call	167c <emit_byte>
				}
				if (e->sc) {
    1e04:	e0ffff17 	ldw	r3,-4(fp)
    1e08:	18800517 	ldw	r2,20(r3)
    1e0c:	1005003a 	cmpeq	r2,r2,zero
    1e10:	10001f1e 	bne	r2,zero,1e90 <arith_encode+0x3f8>
					if (e->zc)
    1e14:	e13fff17 	ldw	r4,-4(fp)
    1e18:	20800617 	ldw	r2,24(r4)
    1e1c:	1005003a 	cmpeq	r2,r2,zero
    1e20:	10000c1e 	bne	r2,zero,1e54 <arith_encode+0x3bc>
						do emit_byte(0x00, cinfo);
    1e24:	0009883a 	mov	r4,zero
    1e28:	e17ff817 	ldw	r5,-32(fp)
    1e2c:	000167c0 	call	167c <emit_byte>
					while (--e->zc);
    1e30:	e0ffff17 	ldw	r3,-4(fp)
    1e34:	18800617 	ldw	r2,24(r3)
    1e38:	10bfffc4 	addi	r2,r2,-1
    1e3c:	e13fff17 	ldw	r4,-4(fp)
    1e40:	20800615 	stw	r2,24(r4)
    1e44:	e0ffff17 	ldw	r3,-4(fp)
    1e48:	18800617 	ldw	r2,24(r3)
    1e4c:	1004c03a 	cmpne	r2,r2,zero
    1e50:	103ff41e 	bne	r2,zero,1e24 <arith_encode+0x38c>
					do {
						emit_byte(0xFF, cinfo);
    1e54:	01003fc4 	movi	r4,255
    1e58:	e17ff817 	ldw	r5,-32(fp)
    1e5c:	000167c0 	call	167c <emit_byte>
						emit_byte(0x00, cinfo);
    1e60:	0009883a 	mov	r4,zero
    1e64:	e17ff817 	ldw	r5,-32(fp)
    1e68:	000167c0 	call	167c <emit_byte>
					} while (--e->sc);
    1e6c:	e13fff17 	ldw	r4,-4(fp)
    1e70:	20800517 	ldw	r2,20(r4)
    1e74:	10bfffc4 	addi	r2,r2,-1
    1e78:	e0ffff17 	ldw	r3,-4(fp)
    1e7c:	18800515 	stw	r2,20(r3)
    1e80:	e13fff17 	ldw	r4,-4(fp)
    1e84:	20800517 	ldw	r2,20(r4)
    1e88:	1004c03a 	cmpne	r2,r2,zero
    1e8c:	103ff11e 	bne	r2,zero,1e54 <arith_encode+0x3bc>
				}
				e->buffer = temp & 0xFF;  /* new output byte (can still overflow) */
    1e90:	e0fffc17 	ldw	r3,-16(fp)
    1e94:	18803fcc 	andi	r2,r3,255
    1e98:	e13fff17 	ldw	r4,-4(fp)
    1e9c:	20800815 	stw	r2,32(r4)
			}
			e->c &= 0x7FFFFL;
    1ea0:	e0bfff17 	ldw	r2,-4(fp)
    1ea4:	10c00317 	ldw	r3,12(r2)
    1ea8:	00800234 	movhi	r2,8
    1eac:	10bfffc4 	addi	r2,r2,-1
    1eb0:	1884703a 	and	r2,r3,r2
    1eb4:	e0ffff17 	ldw	r3,-4(fp)
    1eb8:	18800315 	stw	r2,12(r3)
			e->ct += 8;
    1ebc:	e13fff17 	ldw	r4,-4(fp)
    1ec0:	20800717 	ldw	r2,28(r4)
    1ec4:	10800204 	addi	r2,r2,8
    1ec8:	e0ffff17 	ldw	r3,-4(fp)
    1ecc:	18800715 	stw	r2,28(r3)
		}
	} while (e->a < 0x8000L);
    1ed0:	e13fff17 	ldw	r4,-4(fp)
    1ed4:	20c00417 	ldw	r3,16(r4)
    1ed8:	009fffc4 	movi	r2,32767
    1edc:	10ff560e 	bge	r2,r3,1c38 <arith_encode+0x1a0>
}
    1ee0:	e037883a 	mov	sp,fp
    1ee4:	dfc00117 	ldw	ra,4(sp)
    1ee8:	df000017 	ldw	fp,0(sp)
    1eec:	dec00204 	addi	sp,sp,8
    1ef0:	f800283a 	ret

00001ef4 <emit_restart>:
* Emit a restart marker & resynchronize predictions.
*/

LOCAL(void)
	emit_restart (j_compress_ptr cinfo, int restart_num)
{
    1ef4:	defff904 	addi	sp,sp,-28
    1ef8:	dfc00615 	stw	ra,24(sp)
    1efc:	df000515 	stw	fp,20(sp)
    1f00:	df000504 	addi	fp,sp,20
    1f04:	e13ffe15 	stw	r4,-8(fp)
    1f08:	e17fff15 	stw	r5,-4(fp)
	arith_entropy_ptr entropy = (arith_entropy_ptr) cinfo->entropy;
    1f0c:	e0bffe17 	ldw	r2,-8(fp)
    1f10:	10806417 	ldw	r2,400(r2)
    1f14:	e0bffd15 	stw	r2,-12(fp)
	int ci;
	jpeg_component_info * compptr;

	finish_pass(cinfo);
    1f18:	e13ffe17 	ldw	r4,-8(fp)
    1f1c:	00017340 	call	1734 <finish_pass>

	emit_byte(0xFF, cinfo);
    1f20:	01003fc4 	movi	r4,255
    1f24:	e17ffe17 	ldw	r5,-8(fp)
    1f28:	000167c0 	call	167c <emit_byte>
	emit_byte(JPEG_RST0 + restart_num, cinfo);
    1f2c:	e0bfff17 	ldw	r2,-4(fp)
    1f30:	11003404 	addi	r4,r2,208
    1f34:	e17ffe17 	ldw	r5,-8(fp)
    1f38:	000167c0 	call	167c <emit_byte>

	/* Re-initialize statistics areas */
	for (ci = 0; ci < cinfo->comps_in_scan; ci++) {
    1f3c:	e03ffc15 	stw	zero,-16(fp)
    1f40:	00003d06 	br	2038 <emit_restart+0x144>
		compptr = cinfo->cur_comp_info[ci];
    1f44:	e0bffc17 	ldw	r2,-16(fp)
    1f48:	e0fffe17 	ldw	r3,-8(fp)
    1f4c:	1085883a 	add	r2,r2,r2
    1f50:	1085883a 	add	r2,r2,r2
    1f54:	10c5883a 	add	r2,r2,r3
    1f58:	10804404 	addi	r2,r2,272
    1f5c:	10800017 	ldw	r2,0(r2)
    1f60:	e0bffb15 	stw	r2,-20(fp)
		/* DC needs no table for refinement scan */
		if (cinfo->Ss == 0 && cinfo->Ah == 0) {
    1f64:	e0bffe17 	ldw	r2,-8(fp)
    1f68:	10805517 	ldw	r2,340(r2)
    1f6c:	1004c03a 	cmpne	r2,r2,zero
    1f70:	10001e1e 	bne	r2,zero,1fec <emit_restart+0xf8>
    1f74:	e0bffe17 	ldw	r2,-8(fp)
    1f78:	10805717 	ldw	r2,348(r2)
    1f7c:	1004c03a 	cmpne	r2,r2,zero
    1f80:	10001a1e 	bne	r2,zero,1fec <emit_restart+0xf8>
			MEMZERO(entropy->dc_stats[compptr->dc_tbl_no], DC_STAT_BINS);
    1f84:	e0bffb17 	ldw	r2,-20(fp)
    1f88:	10800517 	ldw	r2,20(r2)
    1f8c:	e0fffd17 	ldw	r3,-12(fp)
    1f90:	1085883a 	add	r2,r2,r2
    1f94:	1085883a 	add	r2,r2,r2
    1f98:	10c5883a 	add	r2,r2,r3
    1f9c:	10801304 	addi	r2,r2,76
    1fa0:	10800017 	ldw	r2,0(r2)
    1fa4:	1009883a 	mov	r4,r2
    1fa8:	01801004 	movi	r6,64
    1fac:	000b883a 	mov	r5,zero
    1fb0:	002e4140 	call	2e414 <memset>
			/* Reset DC predictions to 0 */
			entropy->last_dc_val[ci] = 0;
    1fb4:	e0bffc17 	ldw	r2,-16(fp)
    1fb8:	e0fffd17 	ldw	r3,-12(fp)
    1fbc:	1085883a 	add	r2,r2,r2
    1fc0:	1085883a 	add	r2,r2,r2
    1fc4:	10c5883a 	add	r2,r2,r3
    1fc8:	10800904 	addi	r2,r2,36
    1fcc:	10000015 	stw	zero,0(r2)
			entropy->dc_context[ci] = 0;
    1fd0:	e0bffc17 	ldw	r2,-16(fp)
    1fd4:	e0fffd17 	ldw	r3,-12(fp)
    1fd8:	1085883a 	add	r2,r2,r2
    1fdc:	1085883a 	add	r2,r2,r2
    1fe0:	10c5883a 	add	r2,r2,r3
    1fe4:	10800d04 	addi	r2,r2,52
    1fe8:	10000015 	stw	zero,0(r2)
		}
		/* AC needs no table when not present */
		if (cinfo->Se) {
    1fec:	e0bffe17 	ldw	r2,-8(fp)
    1ff0:	10805617 	ldw	r2,344(r2)
    1ff4:	1005003a 	cmpeq	r2,r2,zero
    1ff8:	10000c1e 	bne	r2,zero,202c <emit_restart+0x138>
			MEMZERO(entropy->ac_stats[compptr->ac_tbl_no], AC_STAT_BINS);
    1ffc:	e0bffb17 	ldw	r2,-20(fp)
    2000:	10800617 	ldw	r2,24(r2)
    2004:	e0fffd17 	ldw	r3,-12(fp)
    2008:	1085883a 	add	r2,r2,r2
    200c:	1085883a 	add	r2,r2,r2
    2010:	10c5883a 	add	r2,r2,r3
    2014:	10802304 	addi	r2,r2,140
    2018:	10800017 	ldw	r2,0(r2)
    201c:	1009883a 	mov	r4,r2
    2020:	01804004 	movi	r6,256
    2024:	000b883a 	mov	r5,zero
    2028:	002e4140 	call	2e414 <memset>

	emit_byte(0xFF, cinfo);
	emit_byte(JPEG_RST0 + restart_num, cinfo);

	/* Re-initialize statistics areas */
	for (ci = 0; ci < cinfo->comps_in_scan; ci++) {
    202c:	e0bffc17 	ldw	r2,-16(fp)
    2030:	10800044 	addi	r2,r2,1
    2034:	e0bffc15 	stw	r2,-16(fp)
    2038:	e0bffe17 	ldw	r2,-8(fp)
    203c:	10c04317 	ldw	r3,268(r2)
    2040:	e0bffc17 	ldw	r2,-16(fp)
    2044:	10ffbf16 	blt	r2,r3,1f44 <emit_restart+0x50>
			MEMZERO(entropy->ac_stats[compptr->ac_tbl_no], AC_STAT_BINS);
		}
	}

	/* Reset arithmetic encoding variables */
	entropy->c = 0;
    2048:	e0bffd17 	ldw	r2,-12(fp)
    204c:	10000315 	stw	zero,12(r2)
	entropy->a = 0x10000L;
    2050:	e0fffd17 	ldw	r3,-12(fp)
    2054:	00800074 	movhi	r2,1
    2058:	18800415 	stw	r2,16(r3)
	entropy->sc = 0;
    205c:	e0bffd17 	ldw	r2,-12(fp)
    2060:	10000515 	stw	zero,20(r2)
	entropy->zc = 0;
    2064:	e0bffd17 	ldw	r2,-12(fp)
    2068:	10000615 	stw	zero,24(r2)
	entropy->ct = 11;
    206c:	e0fffd17 	ldw	r3,-12(fp)
    2070:	008002c4 	movi	r2,11
    2074:	18800715 	stw	r2,28(r3)
	entropy->buffer = -1;  /* empty */
    2078:	e0fffd17 	ldw	r3,-12(fp)
    207c:	00bfffc4 	movi	r2,-1
    2080:	18800815 	stw	r2,32(r3)
}
    2084:	e037883a 	mov	sp,fp
    2088:	dfc00117 	ldw	ra,4(sp)
    208c:	df000017 	ldw	fp,0(sp)
    2090:	dec00204 	addi	sp,sp,8
    2094:	f800283a 	ret

00002098 <encode_mcu_DC_first>:
* or first pass of successive approximation).
*/

METHODDEF(boolean)
	encode_mcu_DC_first (j_compress_ptr cinfo, JBLOCKROW *MCU_data)
{
    2098:	defff304 	addi	sp,sp,-52
    209c:	dfc00c15 	stw	ra,48(sp)
    20a0:	df000b15 	stw	fp,44(sp)
    20a4:	df000b04 	addi	fp,sp,44
    20a8:	e13ffe15 	stw	r4,-8(fp)
    20ac:	e17fff15 	stw	r5,-4(fp)
	arith_entropy_ptr entropy = (arith_entropy_ptr) cinfo->entropy;
    20b0:	e0bffe17 	ldw	r2,-8(fp)
    20b4:	10806417 	ldw	r2,400(r2)
    20b8:	e0bffd15 	stw	r2,-12(fp)
	int blkn, ci, tbl;
	int v, v2, m;
	ISHIFT_TEMPS

		/* Emit restart marker if needed */
		if (cinfo->restart_interval) {
    20bc:	e0bffe17 	ldw	r2,-8(fp)
    20c0:	10803717 	ldw	r2,220(r2)
    20c4:	1005003a 	cmpeq	r2,r2,zero
    20c8:	10001b1e 	bne	r2,zero,2138 <encode_mcu_DC_first+0xa0>
			if (entropy->restarts_to_go == 0) {
    20cc:	e0bffd17 	ldw	r2,-12(fp)
    20d0:	10801117 	ldw	r2,68(r2)
    20d4:	1004c03a 	cmpne	r2,r2,zero
    20d8:	1000121e 	bne	r2,zero,2124 <encode_mcu_DC_first+0x8c>
				emit_restart(cinfo, entropy->next_restart_num);
    20dc:	e0bffd17 	ldw	r2,-12(fp)
    20e0:	11401217 	ldw	r5,72(r2)
    20e4:	e13ffe17 	ldw	r4,-8(fp)
    20e8:	0001ef40 	call	1ef4 <emit_restart>
				entropy->restarts_to_go = cinfo->restart_interval;
    20ec:	e0bffe17 	ldw	r2,-8(fp)
    20f0:	10c03717 	ldw	r3,220(r2)
    20f4:	e0bffd17 	ldw	r2,-12(fp)
    20f8:	10c01115 	stw	r3,68(r2)
				entropy->next_restart_num++;
    20fc:	e0bffd17 	ldw	r2,-12(fp)
    2100:	10801217 	ldw	r2,72(r2)
    2104:	10c00044 	addi	r3,r2,1
    2108:	e0bffd17 	ldw	r2,-12(fp)
    210c:	10c01215 	stw	r3,72(r2)
				entropy->next_restart_num &= 7;
    2110:	e0bffd17 	ldw	r2,-12(fp)
    2114:	10801217 	ldw	r2,72(r2)
    2118:	10c001cc 	andi	r3,r2,7
    211c:	e0bffd17 	ldw	r2,-12(fp)
    2120:	10c01215 	stw	r3,72(r2)
			}
			entropy->restarts_to_go--;
    2124:	e0bffd17 	ldw	r2,-12(fp)
    2128:	10801117 	ldw	r2,68(r2)
    212c:	10ffffc4 	addi	r3,r2,-1
    2130:	e0bffd17 	ldw	r2,-12(fp)
    2134:	10c01115 	stw	r3,68(r2)
		}

		/* Encode the MCU data blocks */
		for (blkn = 0; blkn < cinfo->blocks_in_MCU; blkn++) {
    2138:	e03ffa15 	stw	zero,-24(fp)
    213c:	0000ec06 	br	24f0 <encode_mcu_DC_first+0x458>
			block = MCU_data[blkn];
    2140:	e0bffa17 	ldw	r2,-24(fp)
    2144:	1085883a 	add	r2,r2,r2
    2148:	1085883a 	add	r2,r2,r2
    214c:	1007883a 	mov	r3,r2
    2150:	e0bfff17 	ldw	r2,-4(fp)
    2154:	1885883a 	add	r2,r3,r2
    2158:	10800017 	ldw	r2,0(r2)
    215c:	e0bffc15 	stw	r2,-16(fp)
			ci = cinfo->MCU_membership[blkn];
    2160:	e0bffa17 	ldw	r2,-24(fp)
    2164:	e0fffe17 	ldw	r3,-8(fp)
    2168:	1085883a 	add	r2,r2,r2
    216c:	1085883a 	add	r2,r2,r2
    2170:	10c5883a 	add	r2,r2,r3
    2174:	10804b04 	addi	r2,r2,300
    2178:	10800017 	ldw	r2,0(r2)
    217c:	e0bff915 	stw	r2,-28(fp)
			tbl = cinfo->cur_comp_info[ci]->dc_tbl_no;
    2180:	e0bff917 	ldw	r2,-28(fp)
    2184:	e0fffe17 	ldw	r3,-8(fp)
    2188:	1085883a 	add	r2,r2,r2
    218c:	1085883a 	add	r2,r2,r2
    2190:	10c5883a 	add	r2,r2,r3
    2194:	10804404 	addi	r2,r2,272
    2198:	10800017 	ldw	r2,0(r2)
    219c:	10800517 	ldw	r2,20(r2)
    21a0:	e0bff815 	stw	r2,-32(fp)

			/* Compute the DC value after the required point transform by Al.
			* This is simply an arithmetic right shift.
			*/
			m = IRIGHT_SHIFT((int) ((*block)[0]), cinfo->Al);
    21a4:	e0bffc17 	ldw	r2,-16(fp)
    21a8:	1080000b 	ldhu	r2,0(r2)
    21ac:	10ffffcc 	andi	r3,r2,65535
    21b0:	18e0001c 	xori	r3,r3,32768
    21b4:	18e00004 	addi	r3,r3,-32768
    21b8:	e0bffe17 	ldw	r2,-8(fp)
    21bc:	10805817 	ldw	r2,352(r2)
    21c0:	1885d83a 	sra	r2,r3,r2
    21c4:	e0bff515 	stw	r2,-44(fp)

			/* Sections F.1.4.1 & F.1.4.4.1: Encoding of DC coefficients */

			/* Table F.4: Point to statistics bin S0 for DC coefficient coding */
			st = entropy->dc_stats[tbl] + entropy->dc_context[ci];
    21c8:	e0bff817 	ldw	r2,-32(fp)
    21cc:	e0fffd17 	ldw	r3,-12(fp)
    21d0:	1085883a 	add	r2,r2,r2
    21d4:	1085883a 	add	r2,r2,r2
    21d8:	10c5883a 	add	r2,r2,r3
    21dc:	10801304 	addi	r2,r2,76
    21e0:	11000017 	ldw	r4,0(r2)
    21e4:	e0bff917 	ldw	r2,-28(fp)
    21e8:	e0fffd17 	ldw	r3,-12(fp)
    21ec:	1085883a 	add	r2,r2,r2
    21f0:	1085883a 	add	r2,r2,r2
    21f4:	10c5883a 	add	r2,r2,r3
    21f8:	10800d04 	addi	r2,r2,52
    21fc:	10800017 	ldw	r2,0(r2)
    2200:	2085883a 	add	r2,r4,r2
    2204:	e0bffb15 	stw	r2,-20(fp)

			/* Figure F.4: Encode_DC_DIFF */
			if ((v = m - entropy->last_dc_val[ci]) == 0) {
    2208:	e0bff917 	ldw	r2,-28(fp)
    220c:	e0fffd17 	ldw	r3,-12(fp)
    2210:	1085883a 	add	r2,r2,r2
    2214:	1085883a 	add	r2,r2,r2
    2218:	10c5883a 	add	r2,r2,r3
    221c:	10800904 	addi	r2,r2,36
    2220:	10c00017 	ldw	r3,0(r2)
    2224:	e0bff517 	ldw	r2,-44(fp)
    2228:	10c5c83a 	sub	r2,r2,r3
    222c:	e0bff715 	stw	r2,-36(fp)
    2230:	e0bff717 	ldw	r2,-36(fp)
    2234:	1004c03a 	cmpne	r2,r2,zero
    2238:	10000c1e 	bne	r2,zero,226c <encode_mcu_DC_first+0x1d4>
				arith_encode(cinfo, st, 0);
    223c:	e13ffe17 	ldw	r4,-8(fp)
    2240:	e17ffb17 	ldw	r5,-20(fp)
    2244:	000d883a 	mov	r6,zero
    2248:	0001a980 	call	1a98 <arith_encode>
				entropy->dc_context[ci] = 0;	/* zero diff category */
    224c:	e0bff917 	ldw	r2,-28(fp)
    2250:	e0fffd17 	ldw	r3,-12(fp)
    2254:	1085883a 	add	r2,r2,r2
    2258:	1085883a 	add	r2,r2,r2
    225c:	10c5883a 	add	r2,r2,r3
    2260:	10800d04 	addi	r2,r2,52
    2264:	10000015 	stw	zero,0(r2)
    2268:	00009e06 	br	24e4 <encode_mcu_DC_first+0x44c>
			} else {
				entropy->last_dc_val[ci] = m;
    226c:	e0bff917 	ldw	r2,-28(fp)
    2270:	e0fffd17 	ldw	r3,-12(fp)
    2274:	1085883a 	add	r2,r2,r2
    2278:	1085883a 	add	r2,r2,r2
    227c:	10c5883a 	add	r2,r2,r3
    2280:	10c00904 	addi	r3,r2,36
    2284:	e0bff517 	ldw	r2,-44(fp)
    2288:	18800015 	stw	r2,0(r3)
				arith_encode(cinfo, st, 1);
    228c:	e13ffe17 	ldw	r4,-8(fp)
    2290:	e17ffb17 	ldw	r5,-20(fp)
    2294:	01800044 	movi	r6,1
    2298:	0001a980 	call	1a98 <arith_encode>
				/* Figure F.6: Encoding nonzero value v */
				/* Figure F.7: Encoding the sign of v */
				if (v > 0) {
    229c:	e0bff717 	ldw	r2,-36(fp)
    22a0:	10800050 	cmplti	r2,r2,1
    22a4:	1000111e 	bne	r2,zero,22ec <encode_mcu_DC_first+0x254>
					arith_encode(cinfo, st + 1, 0);	/* Table F.4: SS = S0 + 1 */
    22a8:	e0bffb17 	ldw	r2,-20(fp)
    22ac:	11400044 	addi	r5,r2,1
    22b0:	e13ffe17 	ldw	r4,-8(fp)
    22b4:	000d883a 	mov	r6,zero
    22b8:	0001a980 	call	1a98 <arith_encode>
					st += 2;			/* Table F.4: SP = S0 + 2 */
    22bc:	e0bffb17 	ldw	r2,-20(fp)
    22c0:	10800084 	addi	r2,r2,2
    22c4:	e0bffb15 	stw	r2,-20(fp)
					entropy->dc_context[ci] = 4;	/* small positive diff category */
    22c8:	e0bff917 	ldw	r2,-28(fp)
    22cc:	e0fffd17 	ldw	r3,-12(fp)
    22d0:	1085883a 	add	r2,r2,r2
    22d4:	1085883a 	add	r2,r2,r2
    22d8:	10c5883a 	add	r2,r2,r3
    22dc:	10c00d04 	addi	r3,r2,52
    22e0:	00800104 	movi	r2,4
    22e4:	18800015 	stw	r2,0(r3)
    22e8:	00001306 	br	2338 <encode_mcu_DC_first+0x2a0>
				} else {
					v = -v;
    22ec:	e0bff717 	ldw	r2,-36(fp)
    22f0:	0085c83a 	sub	r2,zero,r2
    22f4:	e0bff715 	stw	r2,-36(fp)
					arith_encode(cinfo, st + 1, 1);	/* Table F.4: SS = S0 + 1 */
    22f8:	e0bffb17 	ldw	r2,-20(fp)
    22fc:	11400044 	addi	r5,r2,1
    2300:	e13ffe17 	ldw	r4,-8(fp)
    2304:	01800044 	movi	r6,1
    2308:	0001a980 	call	1a98 <arith_encode>
					st += 3;			/* Table F.4: SN = S0 + 3 */
    230c:	e0bffb17 	ldw	r2,-20(fp)
    2310:	108000c4 	addi	r2,r2,3
    2314:	e0bffb15 	stw	r2,-20(fp)
					entropy->dc_context[ci] = 8;	/* small negative diff category */
    2318:	e0bff917 	ldw	r2,-28(fp)
    231c:	e0fffd17 	ldw	r3,-12(fp)
    2320:	1085883a 	add	r2,r2,r2
    2324:	1085883a 	add	r2,r2,r2
    2328:	10c5883a 	add	r2,r2,r3
    232c:	10c00d04 	addi	r3,r2,52
    2330:	00800204 	movi	r2,8
    2334:	18800015 	stw	r2,0(r3)
				}
				/* Figure F.8: Encoding the magnitude category of v */
				m = 0;
    2338:	e03ff515 	stw	zero,-44(fp)
				if (v -= 1) {
    233c:	e0bff717 	ldw	r2,-36(fp)
    2340:	10bfffc4 	addi	r2,r2,-1
    2344:	e0bff715 	stw	r2,-36(fp)
    2348:	e0bff717 	ldw	r2,-36(fp)
    234c:	1005003a 	cmpeq	r2,r2,zero
    2350:	1000221e 	bne	r2,zero,23dc <encode_mcu_DC_first+0x344>
					arith_encode(cinfo, st, 1);
    2354:	e13ffe17 	ldw	r4,-8(fp)
    2358:	e17ffb17 	ldw	r5,-20(fp)
    235c:	01800044 	movi	r6,1
    2360:	0001a980 	call	1a98 <arith_encode>
					m = 1;
    2364:	00800044 	movi	r2,1
    2368:	e0bff515 	stw	r2,-44(fp)
					v2 = v;
    236c:	e0bff717 	ldw	r2,-36(fp)
    2370:	e0bff615 	stw	r2,-40(fp)
					st = entropy->dc_stats[tbl] + 20; /* Table F.4: X1 = 20 */
    2374:	e0bff817 	ldw	r2,-32(fp)
    2378:	e0fffd17 	ldw	r3,-12(fp)
    237c:	1085883a 	add	r2,r2,r2
    2380:	1085883a 	add	r2,r2,r2
    2384:	10c5883a 	add	r2,r2,r3
    2388:	10801304 	addi	r2,r2,76
    238c:	10800017 	ldw	r2,0(r2)
    2390:	10800504 	addi	r2,r2,20
    2394:	e0bffb15 	stw	r2,-20(fp)
					while (v2 >>= 1) {
    2398:	00000a06 	br	23c4 <encode_mcu_DC_first+0x32c>
						arith_encode(cinfo, st, 1);
    239c:	e13ffe17 	ldw	r4,-8(fp)
    23a0:	e17ffb17 	ldw	r5,-20(fp)
    23a4:	01800044 	movi	r6,1
    23a8:	0001a980 	call	1a98 <arith_encode>
						m <<= 1;
    23ac:	e0bff517 	ldw	r2,-44(fp)
    23b0:	1085883a 	add	r2,r2,r2
    23b4:	e0bff515 	stw	r2,-44(fp)
						st += 1;
    23b8:	e0bffb17 	ldw	r2,-20(fp)
    23bc:	10800044 	addi	r2,r2,1
    23c0:	e0bffb15 	stw	r2,-20(fp)
				if (v -= 1) {
					arith_encode(cinfo, st, 1);
					m = 1;
					v2 = v;
					st = entropy->dc_stats[tbl] + 20; /* Table F.4: X1 = 20 */
					while (v2 >>= 1) {
    23c4:	e0bff617 	ldw	r2,-40(fp)
    23c8:	1005d07a 	srai	r2,r2,1
    23cc:	e0bff615 	stw	r2,-40(fp)
    23d0:	e0bff617 	ldw	r2,-40(fp)
    23d4:	1004c03a 	cmpne	r2,r2,zero
    23d8:	103ff01e 	bne	r2,zero,239c <encode_mcu_DC_first+0x304>
						arith_encode(cinfo, st, 1);
						m <<= 1;
						st += 1;
					}
				}
				arith_encode(cinfo, st, 0);
    23dc:	e13ffe17 	ldw	r4,-8(fp)
    23e0:	e17ffb17 	ldw	r5,-20(fp)
    23e4:	000d883a 	mov	r6,zero
    23e8:	0001a980 	call	1a98 <arith_encode>
				/* Section F.1.4.4.1.2: Establish dc_context conditioning category */
				if (m < (int) ((1L << cinfo->arith_dc_L[tbl]) >> 1))
    23ec:	e0fff817 	ldw	r3,-32(fp)
    23f0:	e0bffe17 	ldw	r2,-8(fp)
    23f4:	1885883a 	add	r2,r3,r2
    23f8:	10802504 	addi	r2,r2,148
    23fc:	10800003 	ldbu	r2,0(r2)
    2400:	10c03fcc 	andi	r3,r2,255
    2404:	00800044 	movi	r2,1
    2408:	10c4983a 	sll	r2,r2,r3
    240c:	1007d07a 	srai	r3,r2,1
    2410:	e0bff517 	ldw	r2,-44(fp)
    2414:	10c0080e 	bge	r2,r3,2438 <encode_mcu_DC_first+0x3a0>
					entropy->dc_context[ci] = 0;	/* zero diff category */
    2418:	e0bff917 	ldw	r2,-28(fp)
    241c:	e0fffd17 	ldw	r3,-12(fp)
    2420:	1085883a 	add	r2,r2,r2
    2424:	1085883a 	add	r2,r2,r2
    2428:	10c5883a 	add	r2,r2,r3
    242c:	10800d04 	addi	r2,r2,52
    2430:	10000015 	stw	zero,0(r2)
    2434:	00001a06 	br	24a0 <encode_mcu_DC_first+0x408>
				else if (m > (int) ((1L << cinfo->arith_dc_U[tbl]) >> 1))
    2438:	e0fff817 	ldw	r3,-32(fp)
    243c:	e0bffe17 	ldw	r2,-8(fp)
    2440:	1885883a 	add	r2,r3,r2
    2444:	10802904 	addi	r2,r2,164
    2448:	10800003 	ldbu	r2,0(r2)
    244c:	10c03fcc 	andi	r3,r2,255
    2450:	00800044 	movi	r2,1
    2454:	10c4983a 	sll	r2,r2,r3
    2458:	1007d07a 	srai	r3,r2,1
    245c:	e0bff517 	ldw	r2,-44(fp)
    2460:	18800f0e 	bge	r3,r2,24a0 <encode_mcu_DC_first+0x408>
					entropy->dc_context[ci] += 8;	/* large diff category */
    2464:	e13ff917 	ldw	r4,-28(fp)
    2468:	e0bff917 	ldw	r2,-28(fp)
    246c:	e0fffd17 	ldw	r3,-12(fp)
    2470:	1085883a 	add	r2,r2,r2
    2474:	1085883a 	add	r2,r2,r2
    2478:	10c5883a 	add	r2,r2,r3
    247c:	10800d04 	addi	r2,r2,52
    2480:	10800017 	ldw	r2,0(r2)
    2484:	11400204 	addi	r5,r2,8
    2488:	e0fffd17 	ldw	r3,-12(fp)
    248c:	2105883a 	add	r2,r4,r4
    2490:	1085883a 	add	r2,r2,r2
    2494:	10c5883a 	add	r2,r2,r3
    2498:	10800d04 	addi	r2,r2,52
    249c:	11400015 	stw	r5,0(r2)
				/* Figure F.9: Encoding the magnitude bit pattern of v */
				st += 14;
    24a0:	e0bffb17 	ldw	r2,-20(fp)
    24a4:	10800384 	addi	r2,r2,14
    24a8:	e0bffb15 	stw	r2,-20(fp)
				while (m >>= 1)
    24ac:	00000706 	br	24cc <encode_mcu_DC_first+0x434>
					arith_encode(cinfo, st, (m & v) ? 1 : 0);
    24b0:	e0fff517 	ldw	r3,-44(fp)
    24b4:	e0bff717 	ldw	r2,-36(fp)
    24b8:	1884703a 	and	r2,r3,r2
    24bc:	100cc03a 	cmpne	r6,r2,zero
    24c0:	e13ffe17 	ldw	r4,-8(fp)
    24c4:	e17ffb17 	ldw	r5,-20(fp)
    24c8:	0001a980 	call	1a98 <arith_encode>
					entropy->dc_context[ci] = 0;	/* zero diff category */
				else if (m > (int) ((1L << cinfo->arith_dc_U[tbl]) >> 1))
					entropy->dc_context[ci] += 8;	/* large diff category */
				/* Figure F.9: Encoding the magnitude bit pattern of v */
				st += 14;
				while (m >>= 1)
    24cc:	e0bff517 	ldw	r2,-44(fp)
    24d0:	1005d07a 	srai	r2,r2,1
    24d4:	e0bff515 	stw	r2,-44(fp)
    24d8:	e0bff517 	ldw	r2,-44(fp)
    24dc:	1004c03a 	cmpne	r2,r2,zero
    24e0:	103ff31e 	bne	r2,zero,24b0 <encode_mcu_DC_first+0x418>
			}
			entropy->restarts_to_go--;
		}

		/* Encode the MCU data blocks */
		for (blkn = 0; blkn < cinfo->blocks_in_MCU; blkn++) {
    24e4:	e0bffa17 	ldw	r2,-24(fp)
    24e8:	10800044 	addi	r2,r2,1
    24ec:	e0bffa15 	stw	r2,-24(fp)
    24f0:	e0bffe17 	ldw	r2,-8(fp)
    24f4:	10c04a17 	ldw	r3,296(r2)
    24f8:	e0bffa17 	ldw	r2,-24(fp)
    24fc:	10ff1016 	blt	r2,r3,2140 <encode_mcu_DC_first+0xa8>
				while (m >>= 1)
					arith_encode(cinfo, st, (m & v) ? 1 : 0);
			}
		}

		return TRUE;
    2500:	00800044 	movi	r2,1
}
    2504:	e037883a 	mov	sp,fp
    2508:	dfc00117 	ldw	ra,4(sp)
    250c:	df000017 	ldw	fp,0(sp)
    2510:	dec00204 	addi	sp,sp,8
    2514:	f800283a 	ret

00002518 <encode_mcu_AC_first>:
* or first pass of successive approximation).
*/

METHODDEF(boolean)
	encode_mcu_AC_first (j_compress_ptr cinfo, JBLOCKROW *MCU_data)
{
    2518:	defff004 	addi	sp,sp,-64
    251c:	dfc00f15 	stw	ra,60(sp)
    2520:	df000e15 	stw	fp,56(sp)
    2524:	df000e04 	addi	fp,sp,56
    2528:	e13ffc15 	stw	r4,-16(fp)
    252c:	e17ffd15 	stw	r5,-12(fp)
	arith_entropy_ptr entropy = (arith_entropy_ptr) cinfo->entropy;
    2530:	e0bffc17 	ldw	r2,-16(fp)
    2534:	10806417 	ldw	r2,400(r2)
    2538:	e0bffb15 	stw	r2,-20(fp)
	int tbl, k, ke;
	int v, v2, m;
	const int * natural_order;

	/* Emit restart marker if needed */
	if (cinfo->restart_interval) {
    253c:	e0bffc17 	ldw	r2,-16(fp)
    2540:	10803717 	ldw	r2,220(r2)
    2544:	1005003a 	cmpeq	r2,r2,zero
    2548:	10001b1e 	bne	r2,zero,25b8 <encode_mcu_AC_first+0xa0>
		if (entropy->restarts_to_go == 0) {
    254c:	e0bffb17 	ldw	r2,-20(fp)
    2550:	10801117 	ldw	r2,68(r2)
    2554:	1004c03a 	cmpne	r2,r2,zero
    2558:	1000121e 	bne	r2,zero,25a4 <encode_mcu_AC_first+0x8c>
			emit_restart(cinfo, entropy->next_restart_num);
    255c:	e0bffb17 	ldw	r2,-20(fp)
    2560:	11401217 	ldw	r5,72(r2)
    2564:	e13ffc17 	ldw	r4,-16(fp)
    2568:	0001ef40 	call	1ef4 <emit_restart>
			entropy->restarts_to_go = cinfo->restart_interval;
    256c:	e0bffc17 	ldw	r2,-16(fp)
    2570:	10c03717 	ldw	r3,220(r2)
    2574:	e0bffb17 	ldw	r2,-20(fp)
    2578:	10c01115 	stw	r3,68(r2)
			entropy->next_restart_num++;
    257c:	e0bffb17 	ldw	r2,-20(fp)
    2580:	10801217 	ldw	r2,72(r2)
    2584:	10c00044 	addi	r3,r2,1
    2588:	e0bffb17 	ldw	r2,-20(fp)
    258c:	10c01215 	stw	r3,72(r2)
			entropy->next_restart_num &= 7;
    2590:	e0bffb17 	ldw	r2,-20(fp)
    2594:	10801217 	ldw	r2,72(r2)
    2598:	10c001cc 	andi	r3,r2,7
    259c:	e0bffb17 	ldw	r2,-20(fp)
    25a0:	10c01215 	stw	r3,72(r2)
		}
		entropy->restarts_to_go--;
    25a4:	e0bffb17 	ldw	r2,-20(fp)
    25a8:	10801117 	ldw	r2,68(r2)
    25ac:	10ffffc4 	addi	r3,r2,-1
    25b0:	e0bffb17 	ldw	r2,-20(fp)
    25b4:	10c01115 	stw	r3,68(r2)
	}

	natural_order = cinfo->natural_order;
    25b8:	e0bffc17 	ldw	r2,-16(fp)
    25bc:	10805a17 	ldw	r2,360(r2)
    25c0:	e0bff215 	stw	r2,-56(fp)

	/* Encode the MCU data block */
	block = MCU_data[0];
    25c4:	e0bffd17 	ldw	r2,-12(fp)
    25c8:	10800017 	ldw	r2,0(r2)
    25cc:	e0bffa15 	stw	r2,-24(fp)
	tbl = cinfo->cur_comp_info[0]->ac_tbl_no;
    25d0:	e0bffc17 	ldw	r2,-16(fp)
    25d4:	10804417 	ldw	r2,272(r2)
    25d8:	10800617 	ldw	r2,24(r2)
    25dc:	e0bff815 	stw	r2,-32(fp)

	/* Sections F.1.4.2 & F.1.4.4.2: Encoding of AC coefficients */

	/* Establish EOB (end-of-block) index */
	for (ke = cinfo->Se; ke > 0; ke--)
    25e0:	e0bffc17 	ldw	r2,-16(fp)
    25e4:	10805617 	ldw	r2,344(r2)
    25e8:	e0bff615 	stw	r2,-40(fp)
    25ec:	00002906 	br	2694 <encode_mcu_AC_first+0x17c>
		/* We must apply the point transform by Al.  For AC coefficients this
		* is an integer division with rounding towards 0.  To do this portably
		* in C, we shift after obtaining the absolute value.
		*/
		if ((v = (*block)[natural_order[ke]]) >= 0) {
    25f0:	e0bff617 	ldw	r2,-40(fp)
    25f4:	1085883a 	add	r2,r2,r2
    25f8:	1085883a 	add	r2,r2,r2
    25fc:	1007883a 	mov	r3,r2
    2600:	e0bff217 	ldw	r2,-56(fp)
    2604:	1885883a 	add	r2,r3,r2
    2608:	10800017 	ldw	r2,0(r2)
    260c:	e0fffa17 	ldw	r3,-24(fp)
    2610:	1085883a 	add	r2,r2,r2
    2614:	10c5883a 	add	r2,r2,r3
    2618:	1080000b 	ldhu	r2,0(r2)
    261c:	10bfffcc 	andi	r2,r2,65535
    2620:	10a0001c 	xori	r2,r2,32768
    2624:	10a00004 	addi	r2,r2,-32768
    2628:	e0bff515 	stw	r2,-44(fp)
    262c:	e0bff517 	ldw	r2,-44(fp)
    2630:	1004803a 	cmplt	r2,r2,zero
    2634:	1000091e 	bne	r2,zero,265c <encode_mcu_AC_first+0x144>
			if (v >>= cinfo->Al) break;
    2638:	e0bffc17 	ldw	r2,-16(fp)
    263c:	10c05817 	ldw	r3,352(r2)
    2640:	e0bff517 	ldw	r2,-44(fp)
    2644:	10c5d83a 	sra	r2,r2,r3
    2648:	e0bff515 	stw	r2,-44(fp)
    264c:	e0bff517 	ldw	r2,-44(fp)
    2650:	1004c03a 	cmpne	r2,r2,zero
    2654:	1000121e 	bne	r2,zero,26a0 <encode_mcu_AC_first+0x188>
    2658:	00000b06 	br	2688 <encode_mcu_AC_first+0x170>
		} else {
			v = -v;
    265c:	e0bff517 	ldw	r2,-44(fp)
    2660:	0085c83a 	sub	r2,zero,r2
    2664:	e0bff515 	stw	r2,-44(fp)
			if (v >>= cinfo->Al) break;
    2668:	e0bffc17 	ldw	r2,-16(fp)
    266c:	10c05817 	ldw	r3,352(r2)
    2670:	e0bff517 	ldw	r2,-44(fp)
    2674:	10c5d83a 	sra	r2,r2,r3
    2678:	e0bff515 	stw	r2,-44(fp)
    267c:	e0bff517 	ldw	r2,-44(fp)
    2680:	1004c03a 	cmpne	r2,r2,zero
    2684:	1000061e 	bne	r2,zero,26a0 <encode_mcu_AC_first+0x188>
	tbl = cinfo->cur_comp_info[0]->ac_tbl_no;

	/* Sections F.1.4.2 & F.1.4.4.2: Encoding of AC coefficients */

	/* Establish EOB (end-of-block) index */
	for (ke = cinfo->Se; ke > 0; ke--)
    2688:	e0bff617 	ldw	r2,-40(fp)
    268c:	10bfffc4 	addi	r2,r2,-1
    2690:	e0bff615 	stw	r2,-40(fp)
    2694:	e0bff617 	ldw	r2,-40(fp)
    2698:	10800048 	cmpgei	r2,r2,1
    269c:	103fd41e 	bne	r2,zero,25f0 <encode_mcu_AC_first+0xd8>
			v = -v;
			if (v >>= cinfo->Al) break;
		}

		/* Figure F.5: Encode_AC_Coefficients */
		for (k = cinfo->Ss; k <= ke; k++) {
    26a0:	e0bffc17 	ldw	r2,-16(fp)
    26a4:	10805517 	ldw	r2,340(r2)
    26a8:	e0bff715 	stw	r2,-36(fp)
    26ac:	0000ba06 	br	2998 <encode_mcu_AC_first+0x480>
			st = entropy->ac_stats[tbl] + 3 * (k - 1);
    26b0:	e0bff817 	ldw	r2,-32(fp)
    26b4:	e0fffb17 	ldw	r3,-20(fp)
    26b8:	1085883a 	add	r2,r2,r2
    26bc:	1085883a 	add	r2,r2,r2
    26c0:	10c5883a 	add	r2,r2,r3
    26c4:	10802304 	addi	r2,r2,140
    26c8:	11000017 	ldw	r4,0(r2)
    26cc:	e0fff717 	ldw	r3,-36(fp)
    26d0:	1805883a 	mov	r2,r3
    26d4:	1085883a 	add	r2,r2,r2
    26d8:	10c5883a 	add	r2,r2,r3
    26dc:	2085883a 	add	r2,r4,r2
    26e0:	10bfff44 	addi	r2,r2,-3
    26e4:	e0bff915 	stw	r2,-28(fp)
			arith_encode(cinfo, st, 0);		/* EOB decision */
    26e8:	e13ffc17 	ldw	r4,-16(fp)
    26ec:	e17ff917 	ldw	r5,-28(fp)
    26f0:	000d883a 	mov	r6,zero
    26f4:	0001a980 	call	1a98 <arith_encode>
			for (;;) {
				if ((v = (*block)[natural_order[k]]) >= 0) {
    26f8:	e0bff717 	ldw	r2,-36(fp)
    26fc:	1085883a 	add	r2,r2,r2
    2700:	1085883a 	add	r2,r2,r2
    2704:	1007883a 	mov	r3,r2
    2708:	e0bff217 	ldw	r2,-56(fp)
    270c:	1885883a 	add	r2,r3,r2
    2710:	10800017 	ldw	r2,0(r2)
    2714:	e0fffa17 	ldw	r3,-24(fp)
    2718:	1085883a 	add	r2,r2,r2
    271c:	10c5883a 	add	r2,r2,r3
    2720:	1080000b 	ldhu	r2,0(r2)
    2724:	10bfffcc 	andi	r2,r2,65535
    2728:	10a0001c 	xori	r2,r2,32768
    272c:	10a00004 	addi	r2,r2,-32768
    2730:	e0bff515 	stw	r2,-44(fp)
    2734:	e0bff517 	ldw	r2,-44(fp)
    2738:	1004803a 	cmplt	r2,r2,zero
    273c:	1000131e 	bne	r2,zero,278c <encode_mcu_AC_first+0x274>
					if (v >>= cinfo->Al) {
    2740:	e0bffc17 	ldw	r2,-16(fp)
    2744:	10c05817 	ldw	r3,352(r2)
    2748:	e0bff517 	ldw	r2,-44(fp)
    274c:	10c5d83a 	sra	r2,r2,r3
    2750:	e0bff515 	stw	r2,-44(fp)
    2754:	e0bff517 	ldw	r2,-44(fp)
    2758:	1005003a 	cmpeq	r2,r2,zero
    275c:	1000211e 	bne	r2,zero,27e4 <encode_mcu_AC_first+0x2cc>
						arith_encode(cinfo, st + 1, 1);
    2760:	e0bff917 	ldw	r2,-28(fp)
    2764:	11400044 	addi	r5,r2,1
    2768:	e13ffc17 	ldw	r4,-16(fp)
    276c:	01800044 	movi	r6,1
    2770:	0001a980 	call	1a98 <arith_encode>
						arith_encode(cinfo, entropy->fixed_bin, 0);
    2774:	e0bffb17 	ldw	r2,-20(fp)
    2778:	11403304 	addi	r5,r2,204
    277c:	e13ffc17 	ldw	r4,-16(fp)
    2780:	000d883a 	mov	r6,zero
    2784:	0001a980 	call	1a98 <arith_encode>
						break;
    2788:	00002206 	br	2814 <encode_mcu_AC_first+0x2fc>
					}
				} else {
					v = -v;
    278c:	e0bff517 	ldw	r2,-44(fp)
    2790:	0085c83a 	sub	r2,zero,r2
    2794:	e0bff515 	stw	r2,-44(fp)
					if (v >>= cinfo->Al) {
    2798:	e0bffc17 	ldw	r2,-16(fp)
    279c:	10c05817 	ldw	r3,352(r2)
    27a0:	e0bff517 	ldw	r2,-44(fp)
    27a4:	10c5d83a 	sra	r2,r2,r3
    27a8:	e0bff515 	stw	r2,-44(fp)
    27ac:	e0bff517 	ldw	r2,-44(fp)
    27b0:	1005003a 	cmpeq	r2,r2,zero
    27b4:	10000b1e 	bne	r2,zero,27e4 <encode_mcu_AC_first+0x2cc>
						arith_encode(cinfo, st + 1, 1);
    27b8:	e0bff917 	ldw	r2,-28(fp)
    27bc:	11400044 	addi	r5,r2,1
    27c0:	e13ffc17 	ldw	r4,-16(fp)
    27c4:	01800044 	movi	r6,1
    27c8:	0001a980 	call	1a98 <arith_encode>
						arith_encode(cinfo, entropy->fixed_bin, 1);
    27cc:	e0bffb17 	ldw	r2,-20(fp)
    27d0:	11403304 	addi	r5,r2,204
    27d4:	e13ffc17 	ldw	r4,-16(fp)
    27d8:	01800044 	movi	r6,1
    27dc:	0001a980 	call	1a98 <arith_encode>
						break;
    27e0:	00000c06 	br	2814 <encode_mcu_AC_first+0x2fc>
					}
				}
				arith_encode(cinfo, st + 1, 0); st += 3; k++;
    27e4:	e0bff917 	ldw	r2,-28(fp)
    27e8:	11400044 	addi	r5,r2,1
    27ec:	e13ffc17 	ldw	r4,-16(fp)
    27f0:	000d883a 	mov	r6,zero
    27f4:	0001a980 	call	1a98 <arith_encode>
    27f8:	e0bff917 	ldw	r2,-28(fp)
    27fc:	108000c4 	addi	r2,r2,3
    2800:	e0bff915 	stw	r2,-28(fp)
    2804:	e0bff717 	ldw	r2,-36(fp)
    2808:	10800044 	addi	r2,r2,1
    280c:	e0bff715 	stw	r2,-36(fp)
			}
    2810:	003fb906 	br	26f8 <encode_mcu_AC_first+0x1e0>
			st += 2;
    2814:	e0bff917 	ldw	r2,-28(fp)
    2818:	10800084 	addi	r2,r2,2
    281c:	e0bff915 	stw	r2,-28(fp)
			/* Figure F.8: Encoding the magnitude category of v */
			m = 0;
    2820:	e03ff315 	stw	zero,-52(fp)
			if (v -= 1) {
    2824:	e0bff517 	ldw	r2,-44(fp)
    2828:	10bfffc4 	addi	r2,r2,-1
    282c:	e0bff515 	stw	r2,-44(fp)
    2830:	e0bff517 	ldw	r2,-44(fp)
    2834:	1005003a 	cmpeq	r2,r2,zero
    2838:	10003f1e 	bne	r2,zero,2938 <encode_mcu_AC_first+0x420>
				arith_encode(cinfo, st, 1);
    283c:	e13ffc17 	ldw	r4,-16(fp)
    2840:	e17ff917 	ldw	r5,-28(fp)
    2844:	01800044 	movi	r6,1
    2848:	0001a980 	call	1a98 <arith_encode>
				m = 1;
    284c:	00800044 	movi	r2,1
    2850:	e0bff315 	stw	r2,-52(fp)
				v2 = v;
    2854:	e0bff517 	ldw	r2,-44(fp)
    2858:	e0bff415 	stw	r2,-48(fp)
				if (v2 >>= 1) {
    285c:	e0bff417 	ldw	r2,-48(fp)
    2860:	1005d07a 	srai	r2,r2,1
    2864:	e0bff415 	stw	r2,-48(fp)
    2868:	e0bff417 	ldw	r2,-48(fp)
    286c:	1005003a 	cmpeq	r2,r2,zero
    2870:	1000311e 	bne	r2,zero,2938 <encode_mcu_AC_first+0x420>
					arith_encode(cinfo, st, 1);
    2874:	e13ffc17 	ldw	r4,-16(fp)
    2878:	e17ff917 	ldw	r5,-28(fp)
    287c:	01800044 	movi	r6,1
    2880:	0001a980 	call	1a98 <arith_encode>
					m <<= 1;
    2884:	e0bff317 	ldw	r2,-52(fp)
    2888:	1085883a 	add	r2,r2,r2
    288c:	e0bff315 	stw	r2,-52(fp)
					st = entropy->ac_stats[tbl] +
    2890:	e0bff817 	ldw	r2,-32(fp)
    2894:	e0fffb17 	ldw	r3,-20(fp)
    2898:	1085883a 	add	r2,r2,r2
    289c:	1085883a 	add	r2,r2,r2
    28a0:	10c5883a 	add	r2,r2,r3
    28a4:	10802304 	addi	r2,r2,140
    28a8:	10800017 	ldw	r2,0(r2)
    28ac:	e0bfff15 	stw	r2,-4(fp)
    28b0:	e0fff817 	ldw	r3,-32(fp)
    28b4:	e0bffc17 	ldw	r2,-16(fp)
    28b8:	1885883a 	add	r2,r3,r2
    28bc:	10802d04 	addi	r2,r2,180
    28c0:	10800003 	ldbu	r2,0(r2)
    28c4:	10c03fcc 	andi	r3,r2,255
    28c8:	e0bff717 	ldw	r2,-36(fp)
    28cc:	18800316 	blt	r3,r2,28dc <encode_mcu_AC_first+0x3c4>
    28d0:	00802f44 	movi	r2,189
    28d4:	e0bffe15 	stw	r2,-8(fp)
    28d8:	00000206 	br	28e4 <encode_mcu_AC_first+0x3cc>
    28dc:	00c03644 	movi	r3,217
    28e0:	e0fffe15 	stw	r3,-8(fp)
    28e4:	e13fff17 	ldw	r4,-4(fp)
    28e8:	e0fffe17 	ldw	r3,-8(fp)
    28ec:	20c5883a 	add	r2,r4,r3
    28f0:	e0bff915 	stw	r2,-28(fp)
						(k <= cinfo->arith_ac_K[tbl] ? 189 : 217);
					while (v2 >>= 1) {
    28f4:	00000a06 	br	2920 <encode_mcu_AC_first+0x408>
						arith_encode(cinfo, st, 1);
    28f8:	e13ffc17 	ldw	r4,-16(fp)
    28fc:	e17ff917 	ldw	r5,-28(fp)
    2900:	01800044 	movi	r6,1
    2904:	0001a980 	call	1a98 <arith_encode>
						m <<= 1;
    2908:	e0bff317 	ldw	r2,-52(fp)
    290c:	1085883a 	add	r2,r2,r2
    2910:	e0bff315 	stw	r2,-52(fp)
						st += 1;
    2914:	e0bff917 	ldw	r2,-28(fp)
    2918:	10800044 	addi	r2,r2,1
    291c:	e0bff915 	stw	r2,-28(fp)
				if (v2 >>= 1) {
					arith_encode(cinfo, st, 1);
					m <<= 1;
					st = entropy->ac_stats[tbl] +
						(k <= cinfo->arith_ac_K[tbl] ? 189 : 217);
					while (v2 >>= 1) {
    2920:	e0bff417 	ldw	r2,-48(fp)
    2924:	1005d07a 	srai	r2,r2,1
    2928:	e0bff415 	stw	r2,-48(fp)
    292c:	e0bff417 	ldw	r2,-48(fp)
    2930:	1004c03a 	cmpne	r2,r2,zero
    2934:	103ff01e 	bne	r2,zero,28f8 <encode_mcu_AC_first+0x3e0>
						m <<= 1;
						st += 1;
					}
				}
			}
			arith_encode(cinfo, st, 0);
    2938:	e13ffc17 	ldw	r4,-16(fp)
    293c:	e17ff917 	ldw	r5,-28(fp)
    2940:	000d883a 	mov	r6,zero
    2944:	0001a980 	call	1a98 <arith_encode>
			/* Figure F.9: Encoding the magnitude bit pattern of v */
			st += 14;
    2948:	e0bff917 	ldw	r2,-28(fp)
    294c:	10800384 	addi	r2,r2,14
    2950:	e0bff915 	stw	r2,-28(fp)
			while (m >>= 1)
    2954:	00000706 	br	2974 <encode_mcu_AC_first+0x45c>
				arith_encode(cinfo, st, (m & v) ? 1 : 0);
    2958:	e0fff317 	ldw	r3,-52(fp)
    295c:	e0bff517 	ldw	r2,-44(fp)
    2960:	1884703a 	and	r2,r3,r2
    2964:	100cc03a 	cmpne	r6,r2,zero
    2968:	e13ffc17 	ldw	r4,-16(fp)
    296c:	e17ff917 	ldw	r5,-28(fp)
    2970:	0001a980 	call	1a98 <arith_encode>
				}
			}
			arith_encode(cinfo, st, 0);
			/* Figure F.9: Encoding the magnitude bit pattern of v */
			st += 14;
			while (m >>= 1)
    2974:	e0bff317 	ldw	r2,-52(fp)
    2978:	1005d07a 	srai	r2,r2,1
    297c:	e0bff315 	stw	r2,-52(fp)
    2980:	e0bff317 	ldw	r2,-52(fp)
    2984:	1004c03a 	cmpne	r2,r2,zero
    2988:	103ff31e 	bne	r2,zero,2958 <encode_mcu_AC_first+0x440>
			v = -v;
			if (v >>= cinfo->Al) break;
		}

		/* Figure F.5: Encode_AC_Coefficients */
		for (k = cinfo->Ss; k <= ke; k++) {
    298c:	e0bff717 	ldw	r2,-36(fp)
    2990:	10800044 	addi	r2,r2,1
    2994:	e0bff715 	stw	r2,-36(fp)
    2998:	e0fff717 	ldw	r3,-36(fp)
    299c:	e0bff617 	ldw	r2,-40(fp)
    29a0:	10ff430e 	bge	r2,r3,26b0 <encode_mcu_AC_first+0x198>
			st += 14;
			while (m >>= 1)
				arith_encode(cinfo, st, (m & v) ? 1 : 0);
		}
		/* Encode EOB decision only if k <= cinfo->Se */
		if (k <= cinfo->Se) {
    29a4:	e0bffc17 	ldw	r2,-16(fp)
    29a8:	10c05617 	ldw	r3,344(r2)
    29ac:	e0bff717 	ldw	r2,-36(fp)
    29b0:	18801216 	blt	r3,r2,29fc <encode_mcu_AC_first+0x4e4>
			st = entropy->ac_stats[tbl] + 3 * (k - 1);
    29b4:	e0bff817 	ldw	r2,-32(fp)
    29b8:	e0fffb17 	ldw	r3,-20(fp)
    29bc:	1085883a 	add	r2,r2,r2
    29c0:	1085883a 	add	r2,r2,r2
    29c4:	10c5883a 	add	r2,r2,r3
    29c8:	10802304 	addi	r2,r2,140
    29cc:	11000017 	ldw	r4,0(r2)
    29d0:	e0fff717 	ldw	r3,-36(fp)
    29d4:	1805883a 	mov	r2,r3
    29d8:	1085883a 	add	r2,r2,r2
    29dc:	10c5883a 	add	r2,r2,r3
    29e0:	2085883a 	add	r2,r4,r2
    29e4:	10bfff44 	addi	r2,r2,-3
    29e8:	e0bff915 	stw	r2,-28(fp)
			arith_encode(cinfo, st, 1);
    29ec:	e13ffc17 	ldw	r4,-16(fp)
    29f0:	e17ff917 	ldw	r5,-28(fp)
    29f4:	01800044 	movi	r6,1
    29f8:	0001a980 	call	1a98 <arith_encode>
		}

		return TRUE;
    29fc:	00800044 	movi	r2,1
}
    2a00:	e037883a 	mov	sp,fp
    2a04:	dfc00117 	ldw	ra,4(sp)
    2a08:	df000017 	ldw	fp,0(sp)
    2a0c:	dec00204 	addi	sp,sp,8
    2a10:	f800283a 	ret

00002a14 <encode_mcu_DC_refine>:
* MCU encoding for DC successive approximation refinement scan.
*/

METHODDEF(boolean)
	encode_mcu_DC_refine (j_compress_ptr cinfo, JBLOCKROW *MCU_data)
{
    2a14:	defff804 	addi	sp,sp,-32
    2a18:	dfc00715 	stw	ra,28(sp)
    2a1c:	df000615 	stw	fp,24(sp)
    2a20:	df000604 	addi	fp,sp,24
    2a24:	e13ffe15 	stw	r4,-8(fp)
    2a28:	e17fff15 	stw	r5,-4(fp)
	arith_entropy_ptr entropy = (arith_entropy_ptr) cinfo->entropy;
    2a2c:	e0bffe17 	ldw	r2,-8(fp)
    2a30:	10806417 	ldw	r2,400(r2)
    2a34:	e0bffd15 	stw	r2,-12(fp)
	unsigned char *st;
	int Al, blkn;

	/* Emit restart marker if needed */
	if (cinfo->restart_interval) {
    2a38:	e0bffe17 	ldw	r2,-8(fp)
    2a3c:	10803717 	ldw	r2,220(r2)
    2a40:	1005003a 	cmpeq	r2,r2,zero
    2a44:	10001b1e 	bne	r2,zero,2ab4 <encode_mcu_DC_refine+0xa0>
		if (entropy->restarts_to_go == 0) {
    2a48:	e0bffd17 	ldw	r2,-12(fp)
    2a4c:	10801117 	ldw	r2,68(r2)
    2a50:	1004c03a 	cmpne	r2,r2,zero
    2a54:	1000121e 	bne	r2,zero,2aa0 <encode_mcu_DC_refine+0x8c>
			emit_restart(cinfo, entropy->next_restart_num);
    2a58:	e0bffd17 	ldw	r2,-12(fp)
    2a5c:	11401217 	ldw	r5,72(r2)
    2a60:	e13ffe17 	ldw	r4,-8(fp)
    2a64:	0001ef40 	call	1ef4 <emit_restart>
			entropy->restarts_to_go = cinfo->restart_interval;
    2a68:	e0bffe17 	ldw	r2,-8(fp)
    2a6c:	10c03717 	ldw	r3,220(r2)
    2a70:	e0bffd17 	ldw	r2,-12(fp)
    2a74:	10c01115 	stw	r3,68(r2)
			entropy->next_restart_num++;
    2a78:	e0bffd17 	ldw	r2,-12(fp)
    2a7c:	10801217 	ldw	r2,72(r2)
    2a80:	10c00044 	addi	r3,r2,1
    2a84:	e0bffd17 	ldw	r2,-12(fp)
    2a88:	10c01215 	stw	r3,72(r2)
			entropy->next_restart_num &= 7;
    2a8c:	e0bffd17 	ldw	r2,-12(fp)
    2a90:	10801217 	ldw	r2,72(r2)
    2a94:	10c001cc 	andi	r3,r2,7
    2a98:	e0bffd17 	ldw	r2,-12(fp)
    2a9c:	10c01215 	stw	r3,72(r2)
		}
		entropy->restarts_to_go--;
    2aa0:	e0bffd17 	ldw	r2,-12(fp)
    2aa4:	10801117 	ldw	r2,68(r2)
    2aa8:	10ffffc4 	addi	r3,r2,-1
    2aac:	e0bffd17 	ldw	r2,-12(fp)
    2ab0:	10c01115 	stw	r3,68(r2)
	}

	st = entropy->fixed_bin;	/* use fixed probability estimation */
    2ab4:	e0bffd17 	ldw	r2,-12(fp)
    2ab8:	10803304 	addi	r2,r2,204
    2abc:	e0bffc15 	stw	r2,-16(fp)
	Al = cinfo->Al;
    2ac0:	e0bffe17 	ldw	r2,-8(fp)
    2ac4:	10805817 	ldw	r2,352(r2)
    2ac8:	e0bffb15 	stw	r2,-20(fp)

	/* Encode the MCU data blocks */
	for (blkn = 0; blkn < cinfo->blocks_in_MCU; blkn++) {
    2acc:	e03ffa15 	stw	zero,-24(fp)
    2ad0:	00001406 	br	2b24 <encode_mcu_DC_refine+0x110>
		/* We simply emit the Al'th bit of the DC coefficient value. */
		arith_encode(cinfo, st, (MCU_data[blkn][0][0] >> Al) & 1);
    2ad4:	e0bffa17 	ldw	r2,-24(fp)
    2ad8:	1085883a 	add	r2,r2,r2
    2adc:	1085883a 	add	r2,r2,r2
    2ae0:	1007883a 	mov	r3,r2
    2ae4:	e0bfff17 	ldw	r2,-4(fp)
    2ae8:	1885883a 	add	r2,r3,r2
    2aec:	10800017 	ldw	r2,0(r2)
    2af0:	1080000b 	ldhu	r2,0(r2)
    2af4:	10ffffcc 	andi	r3,r2,65535
    2af8:	18e0001c 	xori	r3,r3,32768
    2afc:	18e00004 	addi	r3,r3,-32768
    2b00:	e0bffb17 	ldw	r2,-20(fp)
    2b04:	1885d83a 	sra	r2,r3,r2
    2b08:	1180004c 	andi	r6,r2,1
    2b0c:	e13ffe17 	ldw	r4,-8(fp)
    2b10:	e17ffc17 	ldw	r5,-16(fp)
    2b14:	0001a980 	call	1a98 <arith_encode>

	st = entropy->fixed_bin;	/* use fixed probability estimation */
	Al = cinfo->Al;

	/* Encode the MCU data blocks */
	for (blkn = 0; blkn < cinfo->blocks_in_MCU; blkn++) {
    2b18:	e0bffa17 	ldw	r2,-24(fp)
    2b1c:	10800044 	addi	r2,r2,1
    2b20:	e0bffa15 	stw	r2,-24(fp)
    2b24:	e0bffe17 	ldw	r2,-8(fp)
    2b28:	10c04a17 	ldw	r3,296(r2)
    2b2c:	e0bffa17 	ldw	r2,-24(fp)
    2b30:	10ffe816 	blt	r2,r3,2ad4 <encode_mcu_DC_refine+0xc0>
		/* We simply emit the Al'th bit of the DC coefficient value. */
		arith_encode(cinfo, st, (MCU_data[blkn][0][0] >> Al) & 1);
	}

	return TRUE;
    2b34:	00800044 	movi	r2,1
}
    2b38:	e037883a 	mov	sp,fp
    2b3c:	dfc00117 	ldw	ra,4(sp)
    2b40:	df000017 	ldw	fp,0(sp)
    2b44:	dec00204 	addi	sp,sp,8
    2b48:	f800283a 	ret

00002b4c <encode_mcu_AC_refine>:
* MCU encoding for AC successive approximation refinement scan.
*/

METHODDEF(boolean)
	encode_mcu_AC_refine (j_compress_ptr cinfo, JBLOCKROW *MCU_data)
{
    2b4c:	defff304 	addi	sp,sp,-52
    2b50:	dfc00c15 	stw	ra,48(sp)
    2b54:	df000b15 	stw	fp,44(sp)
    2b58:	df000b04 	addi	fp,sp,44
    2b5c:	e13ffe15 	stw	r4,-8(fp)
    2b60:	e17fff15 	stw	r5,-4(fp)
	arith_entropy_ptr entropy = (arith_entropy_ptr) cinfo->entropy;
    2b64:	e0bffe17 	ldw	r2,-8(fp)
    2b68:	10806417 	ldw	r2,400(r2)
    2b6c:	e0bffd15 	stw	r2,-12(fp)
	int tbl, k, ke, kex;
	int v;
	const int * natural_order;

	/* Emit restart marker if needed */
	if (cinfo->restart_interval) {
    2b70:	e0bffe17 	ldw	r2,-8(fp)
    2b74:	10803717 	ldw	r2,220(r2)
    2b78:	1005003a 	cmpeq	r2,r2,zero
    2b7c:	10001b1e 	bne	r2,zero,2bec <encode_mcu_AC_refine+0xa0>
		if (entropy->restarts_to_go == 0) {
    2b80:	e0bffd17 	ldw	r2,-12(fp)
    2b84:	10801117 	ldw	r2,68(r2)
    2b88:	1004c03a 	cmpne	r2,r2,zero
    2b8c:	1000121e 	bne	r2,zero,2bd8 <encode_mcu_AC_refine+0x8c>
			emit_restart(cinfo, entropy->next_restart_num);
    2b90:	e0bffd17 	ldw	r2,-12(fp)
    2b94:	11401217 	ldw	r5,72(r2)
    2b98:	e13ffe17 	ldw	r4,-8(fp)
    2b9c:	0001ef40 	call	1ef4 <emit_restart>
			entropy->restarts_to_go = cinfo->restart_interval;
    2ba0:	e0bffe17 	ldw	r2,-8(fp)
    2ba4:	10c03717 	ldw	r3,220(r2)
    2ba8:	e0bffd17 	ldw	r2,-12(fp)
    2bac:	10c01115 	stw	r3,68(r2)
			entropy->next_restart_num++;
    2bb0:	e0bffd17 	ldw	r2,-12(fp)
    2bb4:	10801217 	ldw	r2,72(r2)
    2bb8:	10c00044 	addi	r3,r2,1
    2bbc:	e0bffd17 	ldw	r2,-12(fp)
    2bc0:	10c01215 	stw	r3,72(r2)
			entropy->next_restart_num &= 7;
    2bc4:	e0bffd17 	ldw	r2,-12(fp)
    2bc8:	10801217 	ldw	r2,72(r2)
    2bcc:	10c001cc 	andi	r3,r2,7
    2bd0:	e0bffd17 	ldw	r2,-12(fp)
    2bd4:	10c01215 	stw	r3,72(r2)
		}
		entropy->restarts_to_go--;
    2bd8:	e0bffd17 	ldw	r2,-12(fp)
    2bdc:	10801117 	ldw	r2,68(r2)
    2be0:	10ffffc4 	addi	r3,r2,-1
    2be4:	e0bffd17 	ldw	r2,-12(fp)
    2be8:	10c01115 	stw	r3,68(r2)
	}

	natural_order = cinfo->natural_order;
    2bec:	e0bffe17 	ldw	r2,-8(fp)
    2bf0:	10805a17 	ldw	r2,360(r2)
    2bf4:	e0bff515 	stw	r2,-44(fp)

	/* Encode the MCU data block */
	block = MCU_data[0];
    2bf8:	e0bfff17 	ldw	r2,-4(fp)
    2bfc:	10800017 	ldw	r2,0(r2)
    2c00:	e0bffc15 	stw	r2,-16(fp)
	tbl = cinfo->cur_comp_info[0]->ac_tbl_no;
    2c04:	e0bffe17 	ldw	r2,-8(fp)
    2c08:	10804417 	ldw	r2,272(r2)
    2c0c:	10800617 	ldw	r2,24(r2)
    2c10:	e0bffa15 	stw	r2,-24(fp)

	/* Section G.1.3.3: Encoding of AC coefficients */

	/* Establish EOB (end-of-block) index */
	for (ke = cinfo->Se; ke > 0; ke--)
    2c14:	e0bffe17 	ldw	r2,-8(fp)
    2c18:	10805617 	ldw	r2,344(r2)
    2c1c:	e0bff815 	stw	r2,-32(fp)
    2c20:	00002906 	br	2cc8 <encode_mcu_AC_refine+0x17c>
		/* We must apply the point transform by Al.  For AC coefficients this
		* is an integer division with rounding towards 0.  To do this portably
		* in C, we shift after obtaining the absolute value.
		*/
		if ((v = (*block)[natural_order[ke]]) >= 0) {
    2c24:	e0bff817 	ldw	r2,-32(fp)
    2c28:	1085883a 	add	r2,r2,r2
    2c2c:	1085883a 	add	r2,r2,r2
    2c30:	1007883a 	mov	r3,r2
    2c34:	e0bff517 	ldw	r2,-44(fp)
    2c38:	1885883a 	add	r2,r3,r2
    2c3c:	10800017 	ldw	r2,0(r2)
    2c40:	e0fffc17 	ldw	r3,-16(fp)
    2c44:	1085883a 	add	r2,r2,r2
    2c48:	10c5883a 	add	r2,r2,r3
    2c4c:	1080000b 	ldhu	r2,0(r2)
    2c50:	10bfffcc 	andi	r2,r2,65535
    2c54:	10a0001c 	xori	r2,r2,32768
    2c58:	10a00004 	addi	r2,r2,-32768
    2c5c:	e0bff615 	stw	r2,-40(fp)
    2c60:	e0bff617 	ldw	r2,-40(fp)
    2c64:	1004803a 	cmplt	r2,r2,zero
    2c68:	1000091e 	bne	r2,zero,2c90 <encode_mcu_AC_refine+0x144>
			if (v >>= cinfo->Al) break;
    2c6c:	e0bffe17 	ldw	r2,-8(fp)
    2c70:	10c05817 	ldw	r3,352(r2)
    2c74:	e0bff617 	ldw	r2,-40(fp)
    2c78:	10c5d83a 	sra	r2,r2,r3
    2c7c:	e0bff615 	stw	r2,-40(fp)
    2c80:	e0bff617 	ldw	r2,-40(fp)
    2c84:	1004c03a 	cmpne	r2,r2,zero
    2c88:	1000121e 	bne	r2,zero,2cd4 <encode_mcu_AC_refine+0x188>
    2c8c:	00000b06 	br	2cbc <encode_mcu_AC_refine+0x170>
		} else {
			v = -v;
    2c90:	e0bff617 	ldw	r2,-40(fp)
    2c94:	0085c83a 	sub	r2,zero,r2
    2c98:	e0bff615 	stw	r2,-40(fp)
			if (v >>= cinfo->Al) break;
    2c9c:	e0bffe17 	ldw	r2,-8(fp)
    2ca0:	10c05817 	ldw	r3,352(r2)
    2ca4:	e0bff617 	ldw	r2,-40(fp)
    2ca8:	10c5d83a 	sra	r2,r2,r3
    2cac:	e0bff615 	stw	r2,-40(fp)
    2cb0:	e0bff617 	ldw	r2,-40(fp)
    2cb4:	1004c03a 	cmpne	r2,r2,zero
    2cb8:	1000061e 	bne	r2,zero,2cd4 <encode_mcu_AC_refine+0x188>
	tbl = cinfo->cur_comp_info[0]->ac_tbl_no;

	/* Section G.1.3.3: Encoding of AC coefficients */

	/* Establish EOB (end-of-block) index */
	for (ke = cinfo->Se; ke > 0; ke--)
    2cbc:	e0bff817 	ldw	r2,-32(fp)
    2cc0:	10bfffc4 	addi	r2,r2,-1
    2cc4:	e0bff815 	stw	r2,-32(fp)
    2cc8:	e0bff817 	ldw	r2,-32(fp)
    2ccc:	10800048 	cmpgei	r2,r2,1
    2cd0:	103fd41e 	bne	r2,zero,2c24 <encode_mcu_AC_refine+0xd8>
			v = -v;
			if (v >>= cinfo->Al) break;
		}

		/* Establish EOBx (previous stage end-of-block) index */
		for (kex = ke; kex > 0; kex--)
    2cd4:	e0bff817 	ldw	r2,-32(fp)
    2cd8:	e0bff715 	stw	r2,-36(fp)
    2cdc:	00002906 	br	2d84 <encode_mcu_AC_refine+0x238>
			if ((v = (*block)[natural_order[kex]]) >= 0) {
    2ce0:	e0bff717 	ldw	r2,-36(fp)
    2ce4:	1085883a 	add	r2,r2,r2
    2ce8:	1085883a 	add	r2,r2,r2
    2cec:	1007883a 	mov	r3,r2
    2cf0:	e0bff517 	ldw	r2,-44(fp)
    2cf4:	1885883a 	add	r2,r3,r2
    2cf8:	10800017 	ldw	r2,0(r2)
    2cfc:	e0fffc17 	ldw	r3,-16(fp)
    2d00:	1085883a 	add	r2,r2,r2
    2d04:	10c5883a 	add	r2,r2,r3
    2d08:	1080000b 	ldhu	r2,0(r2)
    2d0c:	10bfffcc 	andi	r2,r2,65535
    2d10:	10a0001c 	xori	r2,r2,32768
    2d14:	10a00004 	addi	r2,r2,-32768
    2d18:	e0bff615 	stw	r2,-40(fp)
    2d1c:	e0bff617 	ldw	r2,-40(fp)
    2d20:	1004803a 	cmplt	r2,r2,zero
    2d24:	1000091e 	bne	r2,zero,2d4c <encode_mcu_AC_refine+0x200>
				if (v >>= cinfo->Ah) break;
    2d28:	e0bffe17 	ldw	r2,-8(fp)
    2d2c:	10c05717 	ldw	r3,348(r2)
    2d30:	e0bff617 	ldw	r2,-40(fp)
    2d34:	10c5d83a 	sra	r2,r2,r3
    2d38:	e0bff615 	stw	r2,-40(fp)
    2d3c:	e0bff617 	ldw	r2,-40(fp)
    2d40:	1004c03a 	cmpne	r2,r2,zero
    2d44:	1000121e 	bne	r2,zero,2d90 <encode_mcu_AC_refine+0x244>
    2d48:	00000b06 	br	2d78 <encode_mcu_AC_refine+0x22c>
			} else {
				v = -v;
    2d4c:	e0bff617 	ldw	r2,-40(fp)
    2d50:	0085c83a 	sub	r2,zero,r2
    2d54:	e0bff615 	stw	r2,-40(fp)
				if (v >>= cinfo->Ah) break;
    2d58:	e0bffe17 	ldw	r2,-8(fp)
    2d5c:	10c05717 	ldw	r3,348(r2)
    2d60:	e0bff617 	ldw	r2,-40(fp)
    2d64:	10c5d83a 	sra	r2,r2,r3
    2d68:	e0bff615 	stw	r2,-40(fp)
    2d6c:	e0bff617 	ldw	r2,-40(fp)
    2d70:	1004c03a 	cmpne	r2,r2,zero
    2d74:	1000061e 	bne	r2,zero,2d90 <encode_mcu_AC_refine+0x244>
			v = -v;
			if (v >>= cinfo->Al) break;
		}

		/* Establish EOBx (previous stage end-of-block) index */
		for (kex = ke; kex > 0; kex--)
    2d78:	e0bff717 	ldw	r2,-36(fp)
    2d7c:	10bfffc4 	addi	r2,r2,-1
    2d80:	e0bff715 	stw	r2,-36(fp)
    2d84:	e0bff717 	ldw	r2,-36(fp)
    2d88:	10800048 	cmpgei	r2,r2,1
    2d8c:	103fd41e 	bne	r2,zero,2ce0 <encode_mcu_AC_refine+0x194>
				v = -v;
				if (v >>= cinfo->Ah) break;
			}

			/* Figure G.10: Encode_AC_Coefficients_SA */
			for (k = cinfo->Ss; k <= ke; k++) {
    2d90:	e0bffe17 	ldw	r2,-8(fp)
    2d94:	10805517 	ldw	r2,340(r2)
    2d98:	e0bff915 	stw	r2,-28(fp)
    2d9c:	00007506 	br	2f74 <encode_mcu_AC_refine+0x428>
				st = entropy->ac_stats[tbl] + 3 * (k - 1);
    2da0:	e0bffa17 	ldw	r2,-24(fp)
    2da4:	e0fffd17 	ldw	r3,-12(fp)
    2da8:	1085883a 	add	r2,r2,r2
    2dac:	1085883a 	add	r2,r2,r2
    2db0:	10c5883a 	add	r2,r2,r3
    2db4:	10802304 	addi	r2,r2,140
    2db8:	11000017 	ldw	r4,0(r2)
    2dbc:	e0fff917 	ldw	r3,-28(fp)
    2dc0:	1805883a 	mov	r2,r3
    2dc4:	1085883a 	add	r2,r2,r2
    2dc8:	10c5883a 	add	r2,r2,r3
    2dcc:	2085883a 	add	r2,r4,r2
    2dd0:	10bfff44 	addi	r2,r2,-3
    2dd4:	e0bffb15 	stw	r2,-20(fp)
				if (k > kex)
    2dd8:	e0fff917 	ldw	r3,-28(fp)
    2ddc:	e0bff717 	ldw	r2,-36(fp)
    2de0:	10c0040e 	bge	r2,r3,2df4 <encode_mcu_AC_refine+0x2a8>
					arith_encode(cinfo, st, 0);	/* EOB decision */
    2de4:	e13ffe17 	ldw	r4,-8(fp)
    2de8:	e17ffb17 	ldw	r5,-20(fp)
    2dec:	000d883a 	mov	r6,zero
    2df0:	0001a980 	call	1a98 <arith_encode>
				for (;;) {
					if ((v = (*block)[natural_order[k]]) >= 0) {
    2df4:	e0bff917 	ldw	r2,-28(fp)
    2df8:	1085883a 	add	r2,r2,r2
    2dfc:	1085883a 	add	r2,r2,r2
    2e00:	1007883a 	mov	r3,r2
    2e04:	e0bff517 	ldw	r2,-44(fp)
    2e08:	1885883a 	add	r2,r3,r2
    2e0c:	10800017 	ldw	r2,0(r2)
    2e10:	e0fffc17 	ldw	r3,-16(fp)
    2e14:	1085883a 	add	r2,r2,r2
    2e18:	10c5883a 	add	r2,r2,r3
    2e1c:	1080000b 	ldhu	r2,0(r2)
    2e20:	10bfffcc 	andi	r2,r2,65535
    2e24:	10a0001c 	xori	r2,r2,32768
    2e28:	10a00004 	addi	r2,r2,-32768
    2e2c:	e0bff615 	stw	r2,-40(fp)
    2e30:	e0bff617 	ldw	r2,-40(fp)
    2e34:	1004803a 	cmplt	r2,r2,zero
    2e38:	10001e1e 	bne	r2,zero,2eb4 <encode_mcu_AC_refine+0x368>
						if (v >>= cinfo->Al) {
    2e3c:	e0bffe17 	ldw	r2,-8(fp)
    2e40:	10c05817 	ldw	r3,352(r2)
    2e44:	e0bff617 	ldw	r2,-40(fp)
    2e48:	10c5d83a 	sra	r2,r2,r3
    2e4c:	e0bff615 	stw	r2,-40(fp)
    2e50:	e0bff617 	ldw	r2,-40(fp)
    2e54:	1005003a 	cmpeq	r2,r2,zero
    2e58:	1000371e 	bne	r2,zero,2f38 <encode_mcu_AC_refine+0x3ec>
							if (v >> 1)			/* previously nonzero coef */
    2e5c:	e0bff617 	ldw	r2,-40(fp)
    2e60:	1005d07a 	srai	r2,r2,1
    2e64:	1005003a 	cmpeq	r2,r2,zero
    2e68:	1000071e 	bne	r2,zero,2e88 <encode_mcu_AC_refine+0x33c>
								arith_encode(cinfo, st + 2, (v & 1));
    2e6c:	e0bffb17 	ldw	r2,-20(fp)
    2e70:	11400084 	addi	r5,r2,2
    2e74:	e0bff617 	ldw	r2,-40(fp)
    2e78:	1180004c 	andi	r6,r2,1
    2e7c:	e13ffe17 	ldw	r4,-8(fp)
    2e80:	0001a980 	call	1a98 <arith_encode>
    2e84:	00003806 	br	2f68 <encode_mcu_AC_refine+0x41c>
							else {			/* newly nonzero coef */
								arith_encode(cinfo, st + 1, 1);
    2e88:	e0bffb17 	ldw	r2,-20(fp)
    2e8c:	11400044 	addi	r5,r2,1
    2e90:	e13ffe17 	ldw	r4,-8(fp)
    2e94:	01800044 	movi	r6,1
    2e98:	0001a980 	call	1a98 <arith_encode>
								arith_encode(cinfo, entropy->fixed_bin, 0);
    2e9c:	e0bffd17 	ldw	r2,-12(fp)
    2ea0:	11403304 	addi	r5,r2,204
    2ea4:	e13ffe17 	ldw	r4,-8(fp)
    2ea8:	000d883a 	mov	r6,zero
    2eac:	0001a980 	call	1a98 <arith_encode>
							}
							break;
    2eb0:	00002d06 	br	2f68 <encode_mcu_AC_refine+0x41c>
						}
					} else {
						v = -v;
    2eb4:	e0bff617 	ldw	r2,-40(fp)
    2eb8:	0085c83a 	sub	r2,zero,r2
    2ebc:	e0bff615 	stw	r2,-40(fp)
						if (v >>= cinfo->Al) {
    2ec0:	e0bffe17 	ldw	r2,-8(fp)
    2ec4:	10c05817 	ldw	r3,352(r2)
    2ec8:	e0bff617 	ldw	r2,-40(fp)
    2ecc:	10c5d83a 	sra	r2,r2,r3
    2ed0:	e0bff615 	stw	r2,-40(fp)
    2ed4:	e0bff617 	ldw	r2,-40(fp)
    2ed8:	1005003a 	cmpeq	r2,r2,zero
    2edc:	1000161e 	bne	r2,zero,2f38 <encode_mcu_AC_refine+0x3ec>
							if (v >> 1)			/* previously nonzero coef */
    2ee0:	e0bff617 	ldw	r2,-40(fp)
    2ee4:	1005d07a 	srai	r2,r2,1
    2ee8:	1005003a 	cmpeq	r2,r2,zero
    2eec:	1000071e 	bne	r2,zero,2f0c <encode_mcu_AC_refine+0x3c0>
								arith_encode(cinfo, st + 2, (v & 1));
    2ef0:	e0bffb17 	ldw	r2,-20(fp)
    2ef4:	11400084 	addi	r5,r2,2
    2ef8:	e0bff617 	ldw	r2,-40(fp)
    2efc:	1180004c 	andi	r6,r2,1
    2f00:	e13ffe17 	ldw	r4,-8(fp)
    2f04:	0001a980 	call	1a98 <arith_encode>
    2f08:	00001706 	br	2f68 <encode_mcu_AC_refine+0x41c>
							else {			/* newly nonzero coef */
								arith_encode(cinfo, st + 1, 1);
    2f0c:	e0bffb17 	ldw	r2,-20(fp)
    2f10:	11400044 	addi	r5,r2,1
    2f14:	e13ffe17 	ldw	r4,-8(fp)
    2f18:	01800044 	movi	r6,1
    2f1c:	0001a980 	call	1a98 <arith_encode>
								arith_encode(cinfo, entropy->fixed_bin, 1);
    2f20:	e0bffd17 	ldw	r2,-12(fp)
    2f24:	11403304 	addi	r5,r2,204
    2f28:	e13ffe17 	ldw	r4,-8(fp)
    2f2c:	01800044 	movi	r6,1
    2f30:	0001a980 	call	1a98 <arith_encode>
							}
							break;
    2f34:	00000c06 	br	2f68 <encode_mcu_AC_refine+0x41c>
						}
					}
					arith_encode(cinfo, st + 1, 0); st += 3; k++;
    2f38:	e0bffb17 	ldw	r2,-20(fp)
    2f3c:	11400044 	addi	r5,r2,1
    2f40:	e13ffe17 	ldw	r4,-8(fp)
    2f44:	000d883a 	mov	r6,zero
    2f48:	0001a980 	call	1a98 <arith_encode>
    2f4c:	e0bffb17 	ldw	r2,-20(fp)
    2f50:	108000c4 	addi	r2,r2,3
    2f54:	e0bffb15 	stw	r2,-20(fp)
    2f58:	e0bff917 	ldw	r2,-28(fp)
    2f5c:	10800044 	addi	r2,r2,1
    2f60:	e0bff915 	stw	r2,-28(fp)
				}
    2f64:	003fa306 	br	2df4 <encode_mcu_AC_refine+0x2a8>
				v = -v;
				if (v >>= cinfo->Ah) break;
			}

			/* Figure G.10: Encode_AC_Coefficients_SA */
			for (k = cinfo->Ss; k <= ke; k++) {
    2f68:	e0bff917 	ldw	r2,-28(fp)
    2f6c:	10800044 	addi	r2,r2,1
    2f70:	e0bff915 	stw	r2,-28(fp)
    2f74:	e0fff917 	ldw	r3,-28(fp)
    2f78:	e0bff817 	ldw	r2,-32(fp)
    2f7c:	10ff880e 	bge	r2,r3,2da0 <encode_mcu_AC_refine+0x254>
					}
					arith_encode(cinfo, st + 1, 0); st += 3; k++;
				}
			}
			/* Encode EOB decision only if k <= cinfo->Se */
			if (k <= cinfo->Se) {
    2f80:	e0bffe17 	ldw	r2,-8(fp)
    2f84:	10c05617 	ldw	r3,344(r2)
    2f88:	e0bff917 	ldw	r2,-28(fp)
    2f8c:	18801216 	blt	r3,r2,2fd8 <encode_mcu_AC_refine+0x48c>
				st = entropy->ac_stats[tbl] + 3 * (k - 1);
    2f90:	e0bffa17 	ldw	r2,-24(fp)
    2f94:	e0fffd17 	ldw	r3,-12(fp)
    2f98:	1085883a 	add	r2,r2,r2
    2f9c:	1085883a 	add	r2,r2,r2
    2fa0:	10c5883a 	add	r2,r2,r3
    2fa4:	10802304 	addi	r2,r2,140
    2fa8:	11000017 	ldw	r4,0(r2)
    2fac:	e0fff917 	ldw	r3,-28(fp)
    2fb0:	1805883a 	mov	r2,r3
    2fb4:	1085883a 	add	r2,r2,r2
    2fb8:	10c5883a 	add	r2,r2,r3
    2fbc:	2085883a 	add	r2,r4,r2
    2fc0:	10bfff44 	addi	r2,r2,-3
    2fc4:	e0bffb15 	stw	r2,-20(fp)
				arith_encode(cinfo, st, 1);
    2fc8:	e13ffe17 	ldw	r4,-8(fp)
    2fcc:	e17ffb17 	ldw	r5,-20(fp)
    2fd0:	01800044 	movi	r6,1
    2fd4:	0001a980 	call	1a98 <arith_encode>
			}

			return TRUE;
    2fd8:	00800044 	movi	r2,1
}
    2fdc:	e037883a 	mov	sp,fp
    2fe0:	dfc00117 	ldw	ra,4(sp)
    2fe4:	df000017 	ldw	fp,0(sp)
    2fe8:	dec00204 	addi	sp,sp,8
    2fec:	f800283a 	ret

00002ff0 <encode_mcu>:
* Encode and output one MCU's worth of arithmetic-compressed coefficients.
*/

METHODDEF(boolean)
	encode_mcu (j_compress_ptr cinfo, JBLOCKROW *MCU_data)
{
    2ff0:	deffed04 	addi	sp,sp,-76
    2ff4:	dfc01215 	stw	ra,72(sp)
    2ff8:	df001115 	stw	fp,68(sp)
    2ffc:	df001104 	addi	fp,sp,68
    3000:	e13ffc15 	stw	r4,-16(fp)
    3004:	e17ffd15 	stw	r5,-12(fp)
	arith_entropy_ptr entropy = (arith_entropy_ptr) cinfo->entropy;
    3008:	e0bffc17 	ldw	r2,-16(fp)
    300c:	10806417 	ldw	r2,400(r2)
    3010:	e0bffb15 	stw	r2,-20(fp)
	int blkn, ci, tbl, k, ke;
	int v, v2, m;
	const int * natural_order;

	/* Emit restart marker if needed */
	if (cinfo->restart_interval) {
    3014:	e0bffc17 	ldw	r2,-16(fp)
    3018:	10803717 	ldw	r2,220(r2)
    301c:	1005003a 	cmpeq	r2,r2,zero
    3020:	10001b1e 	bne	r2,zero,3090 <encode_mcu+0xa0>
		if (entropy->restarts_to_go == 0) {
    3024:	e0bffb17 	ldw	r2,-20(fp)
    3028:	10801117 	ldw	r2,68(r2)
    302c:	1004c03a 	cmpne	r2,r2,zero
    3030:	1000121e 	bne	r2,zero,307c <encode_mcu+0x8c>
			emit_restart(cinfo, entropy->next_restart_num);
    3034:	e0bffb17 	ldw	r2,-20(fp)
    3038:	11401217 	ldw	r5,72(r2)
    303c:	e13ffc17 	ldw	r4,-16(fp)
    3040:	0001ef40 	call	1ef4 <emit_restart>
			entropy->restarts_to_go = cinfo->restart_interval;
    3044:	e0bffc17 	ldw	r2,-16(fp)
    3048:	10c03717 	ldw	r3,220(r2)
    304c:	e0bffb17 	ldw	r2,-20(fp)
    3050:	10c01115 	stw	r3,68(r2)
			entropy->next_restart_num++;
    3054:	e0bffb17 	ldw	r2,-20(fp)
    3058:	10801217 	ldw	r2,72(r2)
    305c:	10c00044 	addi	r3,r2,1
    3060:	e0bffb17 	ldw	r2,-20(fp)
    3064:	10c01215 	stw	r3,72(r2)
			entropy->next_restart_num &= 7;
    3068:	e0bffb17 	ldw	r2,-20(fp)
    306c:	10801217 	ldw	r2,72(r2)
    3070:	10c001cc 	andi	r3,r2,7
    3074:	e0bffb17 	ldw	r2,-20(fp)
    3078:	10c01215 	stw	r3,72(r2)
		}
		entropy->restarts_to_go--;
    307c:	e0bffb17 	ldw	r2,-20(fp)
    3080:	10801117 	ldw	r2,68(r2)
    3084:	10ffffc4 	addi	r3,r2,-1
    3088:	e0bffb17 	ldw	r2,-20(fp)
    308c:	10c01115 	stw	r3,68(r2)
	}

	natural_order = cinfo->natural_order;
    3090:	e0bffc17 	ldw	r2,-16(fp)
    3094:	10805a17 	ldw	r2,360(r2)
    3098:	e0bfef15 	stw	r2,-68(fp)

	/* Encode the MCU data blocks */
	for (blkn = 0; blkn < cinfo->blocks_in_MCU; blkn++) {
    309c:	e03ff715 	stw	zero,-36(fp)
    30a0:	0001cd06 	br	37d8 <encode_mcu+0x7e8>
		block = MCU_data[blkn];
    30a4:	e0bff717 	ldw	r2,-36(fp)
    30a8:	1085883a 	add	r2,r2,r2
    30ac:	1085883a 	add	r2,r2,r2
    30b0:	1007883a 	mov	r3,r2
    30b4:	e0bffd17 	ldw	r2,-12(fp)
    30b8:	1885883a 	add	r2,r3,r2
    30bc:	10800017 	ldw	r2,0(r2)
    30c0:	e0bff915 	stw	r2,-28(fp)
		ci = cinfo->MCU_membership[blkn];
    30c4:	e0bff717 	ldw	r2,-36(fp)
    30c8:	e0fffc17 	ldw	r3,-16(fp)
    30cc:	1085883a 	add	r2,r2,r2
    30d0:	1085883a 	add	r2,r2,r2
    30d4:	10c5883a 	add	r2,r2,r3
    30d8:	10804b04 	addi	r2,r2,300
    30dc:	10800017 	ldw	r2,0(r2)
    30e0:	e0bff615 	stw	r2,-40(fp)
		compptr = cinfo->cur_comp_info[ci];
    30e4:	e0bff617 	ldw	r2,-40(fp)
    30e8:	e0fffc17 	ldw	r3,-16(fp)
    30ec:	1085883a 	add	r2,r2,r2
    30f0:	1085883a 	add	r2,r2,r2
    30f4:	10c5883a 	add	r2,r2,r3
    30f8:	10804404 	addi	r2,r2,272
    30fc:	10800017 	ldw	r2,0(r2)
    3100:	e0bffa15 	stw	r2,-24(fp)

		/* Sections F.1.4.1 & F.1.4.4.1: Encoding of DC coefficients */

		tbl = compptr->dc_tbl_no;
    3104:	e0bffa17 	ldw	r2,-24(fp)
    3108:	10800517 	ldw	r2,20(r2)
    310c:	e0bff515 	stw	r2,-44(fp)

		/* Table F.4: Point to statistics bin S0 for DC coefficient coding */
		st = entropy->dc_stats[tbl] + entropy->dc_context[ci];
    3110:	e0bff517 	ldw	r2,-44(fp)
    3114:	e0fffb17 	ldw	r3,-20(fp)
    3118:	1085883a 	add	r2,r2,r2
    311c:	1085883a 	add	r2,r2,r2
    3120:	10c5883a 	add	r2,r2,r3
    3124:	10801304 	addi	r2,r2,76
    3128:	11000017 	ldw	r4,0(r2)
    312c:	e0bff617 	ldw	r2,-40(fp)
    3130:	e0fffb17 	ldw	r3,-20(fp)
    3134:	1085883a 	add	r2,r2,r2
    3138:	1085883a 	add	r2,r2,r2
    313c:	10c5883a 	add	r2,r2,r3
    3140:	10800d04 	addi	r2,r2,52
    3144:	10800017 	ldw	r2,0(r2)
    3148:	2085883a 	add	r2,r4,r2
    314c:	e0bff815 	stw	r2,-32(fp)

		/* Figure F.4: Encode_DC_DIFF */
		if ((v = (*block)[0] - entropy->last_dc_val[ci]) == 0) {
    3150:	e0bff917 	ldw	r2,-28(fp)
    3154:	1080000b 	ldhu	r2,0(r2)
    3158:	113fffcc 	andi	r4,r2,65535
    315c:	2120001c 	xori	r4,r4,32768
    3160:	21200004 	addi	r4,r4,-32768
    3164:	e0bff617 	ldw	r2,-40(fp)
    3168:	e0fffb17 	ldw	r3,-20(fp)
    316c:	1085883a 	add	r2,r2,r2
    3170:	1085883a 	add	r2,r2,r2
    3174:	10c5883a 	add	r2,r2,r3
    3178:	10800904 	addi	r2,r2,36
    317c:	10800017 	ldw	r2,0(r2)
    3180:	2085c83a 	sub	r2,r4,r2
    3184:	e0bff215 	stw	r2,-56(fp)
    3188:	e0bff217 	ldw	r2,-56(fp)
    318c:	1004c03a 	cmpne	r2,r2,zero
    3190:	10000c1e 	bne	r2,zero,31c4 <encode_mcu+0x1d4>
			arith_encode(cinfo, st, 0);
    3194:	e13ffc17 	ldw	r4,-16(fp)
    3198:	e17ff817 	ldw	r5,-32(fp)
    319c:	000d883a 	mov	r6,zero
    31a0:	0001a980 	call	1a98 <arith_encode>
			entropy->dc_context[ci] = 0;	/* zero diff category */
    31a4:	e0bff617 	ldw	r2,-40(fp)
    31a8:	e0fffb17 	ldw	r3,-20(fp)
    31ac:	1085883a 	add	r2,r2,r2
    31b0:	1085883a 	add	r2,r2,r2
    31b4:	10c5883a 	add	r2,r2,r3
    31b8:	10800d04 	addi	r2,r2,52
    31bc:	10000015 	stw	zero,0(r2)
    31c0:	0000a206 	br	344c <encode_mcu+0x45c>
		} else {
			entropy->last_dc_val[ci] = (*block)[0];
    31c4:	e0fff617 	ldw	r3,-40(fp)
    31c8:	e0bff917 	ldw	r2,-28(fp)
    31cc:	1080000b 	ldhu	r2,0(r2)
    31d0:	117fffcc 	andi	r5,r2,65535
    31d4:	2960001c 	xori	r5,r5,32768
    31d8:	29600004 	addi	r5,r5,-32768
    31dc:	e13ffb17 	ldw	r4,-20(fp)
    31e0:	18c5883a 	add	r2,r3,r3
    31e4:	1085883a 	add	r2,r2,r2
    31e8:	1105883a 	add	r2,r2,r4
    31ec:	10800904 	addi	r2,r2,36
    31f0:	11400015 	stw	r5,0(r2)
			arith_encode(cinfo, st, 1);
    31f4:	e13ffc17 	ldw	r4,-16(fp)
    31f8:	e17ff817 	ldw	r5,-32(fp)
    31fc:	01800044 	movi	r6,1
    3200:	0001a980 	call	1a98 <arith_encode>
			/* Figure F.6: Encoding nonzero value v */
			/* Figure F.7: Encoding the sign of v */
			if (v > 0) {
    3204:	e0bff217 	ldw	r2,-56(fp)
    3208:	10800050 	cmplti	r2,r2,1
    320c:	1000111e 	bne	r2,zero,3254 <encode_mcu+0x264>
				arith_encode(cinfo, st + 1, 0);	/* Table F.4: SS = S0 + 1 */
    3210:	e0bff817 	ldw	r2,-32(fp)
    3214:	11400044 	addi	r5,r2,1
    3218:	e13ffc17 	ldw	r4,-16(fp)
    321c:	000d883a 	mov	r6,zero
    3220:	0001a980 	call	1a98 <arith_encode>
				st += 2;			/* Table F.4: SP = S0 + 2 */
    3224:	e0bff817 	ldw	r2,-32(fp)
    3228:	10800084 	addi	r2,r2,2
    322c:	e0bff815 	stw	r2,-32(fp)
				entropy->dc_context[ci] = 4;	/* small positive diff category */
    3230:	e0bff617 	ldw	r2,-40(fp)
    3234:	e0fffb17 	ldw	r3,-20(fp)
    3238:	1085883a 	add	r2,r2,r2
    323c:	1085883a 	add	r2,r2,r2
    3240:	10c5883a 	add	r2,r2,r3
    3244:	10c00d04 	addi	r3,r2,52
    3248:	00800104 	movi	r2,4
    324c:	18800015 	stw	r2,0(r3)
    3250:	00001306 	br	32a0 <encode_mcu+0x2b0>
			} else {
				v = -v;
    3254:	e0bff217 	ldw	r2,-56(fp)
    3258:	0085c83a 	sub	r2,zero,r2
    325c:	e0bff215 	stw	r2,-56(fp)
				arith_encode(cinfo, st + 1, 1);	/* Table F.4: SS = S0 + 1 */
    3260:	e0bff817 	ldw	r2,-32(fp)
    3264:	11400044 	addi	r5,r2,1
    3268:	e13ffc17 	ldw	r4,-16(fp)
    326c:	01800044 	movi	r6,1
    3270:	0001a980 	call	1a98 <arith_encode>
				st += 3;			/* Table F.4: SN = S0 + 3 */
    3274:	e0bff817 	ldw	r2,-32(fp)
    3278:	108000c4 	addi	r2,r2,3
    327c:	e0bff815 	stw	r2,-32(fp)
				entropy->dc_context[ci] = 8;	/* small negative diff category */
    3280:	e0bff617 	ldw	r2,-40(fp)
    3284:	e0fffb17 	ldw	r3,-20(fp)
    3288:	1085883a 	add	r2,r2,r2
    328c:	1085883a 	add	r2,r2,r2
    3290:	10c5883a 	add	r2,r2,r3
    3294:	10c00d04 	addi	r3,r2,52
    3298:	00800204 	movi	r2,8
    329c:	18800015 	stw	r2,0(r3)
			}
			/* Figure F.8: Encoding the magnitude category of v */
			m = 0;
    32a0:	e03ff015 	stw	zero,-64(fp)
			if (v -= 1) {
    32a4:	e0bff217 	ldw	r2,-56(fp)
    32a8:	10bfffc4 	addi	r2,r2,-1
    32ac:	e0bff215 	stw	r2,-56(fp)
    32b0:	e0bff217 	ldw	r2,-56(fp)
    32b4:	1005003a 	cmpeq	r2,r2,zero
    32b8:	1000221e 	bne	r2,zero,3344 <encode_mcu+0x354>
				arith_encode(cinfo, st, 1);
    32bc:	e13ffc17 	ldw	r4,-16(fp)
    32c0:	e17ff817 	ldw	r5,-32(fp)
    32c4:	01800044 	movi	r6,1
    32c8:	0001a980 	call	1a98 <arith_encode>
				m = 1;
    32cc:	00800044 	movi	r2,1
    32d0:	e0bff015 	stw	r2,-64(fp)
				v2 = v;
    32d4:	e0bff217 	ldw	r2,-56(fp)
    32d8:	e0bff115 	stw	r2,-60(fp)
				st = entropy->dc_stats[tbl] + 20; /* Table F.4: X1 = 20 */
    32dc:	e0bff517 	ldw	r2,-44(fp)
    32e0:	e0fffb17 	ldw	r3,-20(fp)
    32e4:	1085883a 	add	r2,r2,r2
    32e8:	1085883a 	add	r2,r2,r2
    32ec:	10c5883a 	add	r2,r2,r3
    32f0:	10801304 	addi	r2,r2,76
    32f4:	10800017 	ldw	r2,0(r2)
    32f8:	10800504 	addi	r2,r2,20
    32fc:	e0bff815 	stw	r2,-32(fp)
				while (v2 >>= 1) {
    3300:	00000a06 	br	332c <encode_mcu+0x33c>
					arith_encode(cinfo, st, 1);
    3304:	e13ffc17 	ldw	r4,-16(fp)
    3308:	e17ff817 	ldw	r5,-32(fp)
    330c:	01800044 	movi	r6,1
    3310:	0001a980 	call	1a98 <arith_encode>
					m <<= 1;
    3314:	e0bff017 	ldw	r2,-64(fp)
    3318:	1085883a 	add	r2,r2,r2
    331c:	e0bff015 	stw	r2,-64(fp)
					st += 1;
    3320:	e0bff817 	ldw	r2,-32(fp)
    3324:	10800044 	addi	r2,r2,1
    3328:	e0bff815 	stw	r2,-32(fp)
			if (v -= 1) {
				arith_encode(cinfo, st, 1);
				m = 1;
				v2 = v;
				st = entropy->dc_stats[tbl] + 20; /* Table F.4: X1 = 20 */
				while (v2 >>= 1) {
    332c:	e0bff117 	ldw	r2,-60(fp)
    3330:	1005d07a 	srai	r2,r2,1
    3334:	e0bff115 	stw	r2,-60(fp)
    3338:	e0bff117 	ldw	r2,-60(fp)
    333c:	1004c03a 	cmpne	r2,r2,zero
    3340:	103ff01e 	bne	r2,zero,3304 <encode_mcu+0x314>
					arith_encode(cinfo, st, 1);
					m <<= 1;
					st += 1;
				}
			}
			arith_encode(cinfo, st, 0);
    3344:	e13ffc17 	ldw	r4,-16(fp)
    3348:	e17ff817 	ldw	r5,-32(fp)
    334c:	000d883a 	mov	r6,zero
    3350:	0001a980 	call	1a98 <arith_encode>
			/* Section F.1.4.4.1.2: Establish dc_context conditioning category */
			if (m < (int) ((1L << cinfo->arith_dc_L[tbl]) >> 1))
    3354:	e0fff517 	ldw	r3,-44(fp)
    3358:	e0bffc17 	ldw	r2,-16(fp)
    335c:	1885883a 	add	r2,r3,r2
    3360:	10802504 	addi	r2,r2,148
    3364:	10800003 	ldbu	r2,0(r2)
    3368:	10c03fcc 	andi	r3,r2,255
    336c:	00800044 	movi	r2,1
    3370:	10c4983a 	sll	r2,r2,r3
    3374:	1007d07a 	srai	r3,r2,1
    3378:	e0bff017 	ldw	r2,-64(fp)
    337c:	10c0080e 	bge	r2,r3,33a0 <encode_mcu+0x3b0>
				entropy->dc_context[ci] = 0;	/* zero diff category */
    3380:	e0bff617 	ldw	r2,-40(fp)
    3384:	e0fffb17 	ldw	r3,-20(fp)
    3388:	1085883a 	add	r2,r2,r2
    338c:	1085883a 	add	r2,r2,r2
    3390:	10c5883a 	add	r2,r2,r3
    3394:	10800d04 	addi	r2,r2,52
    3398:	10000015 	stw	zero,0(r2)
    339c:	00001a06 	br	3408 <encode_mcu+0x418>
			else if (m > (int) ((1L << cinfo->arith_dc_U[tbl]) >> 1))
    33a0:	e0fff517 	ldw	r3,-44(fp)
    33a4:	e0bffc17 	ldw	r2,-16(fp)
    33a8:	1885883a 	add	r2,r3,r2
    33ac:	10802904 	addi	r2,r2,164
    33b0:	10800003 	ldbu	r2,0(r2)
    33b4:	10c03fcc 	andi	r3,r2,255
    33b8:	00800044 	movi	r2,1
    33bc:	10c4983a 	sll	r2,r2,r3
    33c0:	1007d07a 	srai	r3,r2,1
    33c4:	e0bff017 	ldw	r2,-64(fp)
    33c8:	18800f0e 	bge	r3,r2,3408 <encode_mcu+0x418>
				entropy->dc_context[ci] += 8;	/* large diff category */
    33cc:	e13ff617 	ldw	r4,-40(fp)
    33d0:	e0bff617 	ldw	r2,-40(fp)
    33d4:	e0fffb17 	ldw	r3,-20(fp)
    33d8:	1085883a 	add	r2,r2,r2
    33dc:	1085883a 	add	r2,r2,r2
    33e0:	10c5883a 	add	r2,r2,r3
    33e4:	10800d04 	addi	r2,r2,52
    33e8:	10800017 	ldw	r2,0(r2)
    33ec:	11400204 	addi	r5,r2,8
    33f0:	e0fffb17 	ldw	r3,-20(fp)
    33f4:	2105883a 	add	r2,r4,r4
    33f8:	1085883a 	add	r2,r2,r2
    33fc:	10c5883a 	add	r2,r2,r3
    3400:	10800d04 	addi	r2,r2,52
    3404:	11400015 	stw	r5,0(r2)
			/* Figure F.9: Encoding the magnitude bit pattern of v */
			st += 14;
    3408:	e0bff817 	ldw	r2,-32(fp)
    340c:	10800384 	addi	r2,r2,14
    3410:	e0bff815 	stw	r2,-32(fp)
			while (m >>= 1)
    3414:	00000706 	br	3434 <encode_mcu+0x444>
				arith_encode(cinfo, st, (m & v) ? 1 : 0);
    3418:	e0fff017 	ldw	r3,-64(fp)
    341c:	e0bff217 	ldw	r2,-56(fp)
    3420:	1884703a 	and	r2,r3,r2
    3424:	100cc03a 	cmpne	r6,r2,zero
    3428:	e13ffc17 	ldw	r4,-16(fp)
    342c:	e17ff817 	ldw	r5,-32(fp)
    3430:	0001a980 	call	1a98 <arith_encode>
				entropy->dc_context[ci] = 0;	/* zero diff category */
			else if (m > (int) ((1L << cinfo->arith_dc_U[tbl]) >> 1))
				entropy->dc_context[ci] += 8;	/* large diff category */
			/* Figure F.9: Encoding the magnitude bit pattern of v */
			st += 14;
			while (m >>= 1)
    3434:	e0bff017 	ldw	r2,-64(fp)
    3438:	1005d07a 	srai	r2,r2,1
    343c:	e0bff015 	stw	r2,-64(fp)
    3440:	e0bff017 	ldw	r2,-64(fp)
    3444:	1004c03a 	cmpne	r2,r2,zero
    3448:	103ff31e 	bne	r2,zero,3418 <encode_mcu+0x428>
				arith_encode(cinfo, st, (m & v) ? 1 : 0);
		}

		/* Sections F.1.4.2 & F.1.4.4.2: Encoding of AC coefficients */

		tbl = compptr->ac_tbl_no;
    344c:	e0bffa17 	ldw	r2,-24(fp)
    3450:	10800617 	ldw	r2,24(r2)
    3454:	e0bff515 	stw	r2,-44(fp)

		/* Establish EOB (end-of-block) index */
		for (ke = cinfo->lim_Se; ke > 0; ke--)
    3458:	e0bffc17 	ldw	r2,-16(fp)
    345c:	10805b17 	ldw	r2,364(r2)
    3460:	e0bff315 	stw	r2,-52(fp)
    3464:	00001306 	br	34b4 <encode_mcu+0x4c4>
			if ((*block)[natural_order[ke]]) break;
    3468:	e0bff317 	ldw	r2,-52(fp)
    346c:	1085883a 	add	r2,r2,r2
    3470:	1085883a 	add	r2,r2,r2
    3474:	1007883a 	mov	r3,r2
    3478:	e0bfef17 	ldw	r2,-68(fp)
    347c:	1885883a 	add	r2,r3,r2
    3480:	10800017 	ldw	r2,0(r2)
    3484:	e0fff917 	ldw	r3,-28(fp)
    3488:	1085883a 	add	r2,r2,r2
    348c:	10c5883a 	add	r2,r2,r3
    3490:	1080000b 	ldhu	r2,0(r2)
    3494:	10bfffcc 	andi	r2,r2,65535
    3498:	10a0001c 	xori	r2,r2,32768
    349c:	10a00004 	addi	r2,r2,-32768
    34a0:	1004c03a 	cmpne	r2,r2,zero
    34a4:	1000061e 	bne	r2,zero,34c0 <encode_mcu+0x4d0>
		/* Sections F.1.4.2 & F.1.4.4.2: Encoding of AC coefficients */

		tbl = compptr->ac_tbl_no;

		/* Establish EOB (end-of-block) index */
		for (ke = cinfo->lim_Se; ke > 0; ke--)
    34a8:	e0bff317 	ldw	r2,-52(fp)
    34ac:	10bfffc4 	addi	r2,r2,-1
    34b0:	e0bff315 	stw	r2,-52(fp)
    34b4:	e0bff317 	ldw	r2,-52(fp)
    34b8:	10800048 	cmpgei	r2,r2,1
    34bc:	103fea1e 	bne	r2,zero,3468 <encode_mcu+0x478>
			if ((*block)[natural_order[ke]]) break;

		/* Figure F.5: Encode_AC_Coefficients */
		for (k = 1; k <= ke; k++) {
    34c0:	00800044 	movi	r2,1
    34c4:	e0bff415 	stw	r2,-48(fp)
    34c8:	0000a706 	br	3768 <encode_mcu+0x778>
			st = entropy->ac_stats[tbl] + 3 * (k - 1);
    34cc:	e0bff517 	ldw	r2,-44(fp)
    34d0:	e0fffb17 	ldw	r3,-20(fp)
    34d4:	1085883a 	add	r2,r2,r2
    34d8:	1085883a 	add	r2,r2,r2
    34dc:	10c5883a 	add	r2,r2,r3
    34e0:	10802304 	addi	r2,r2,140
    34e4:	11000017 	ldw	r4,0(r2)
    34e8:	e0fff417 	ldw	r3,-48(fp)
    34ec:	1805883a 	mov	r2,r3
    34f0:	1085883a 	add	r2,r2,r2
    34f4:	10c5883a 	add	r2,r2,r3
    34f8:	2085883a 	add	r2,r4,r2
    34fc:	10bfff44 	addi	r2,r2,-3
    3500:	e0bff815 	stw	r2,-32(fp)
			arith_encode(cinfo, st, 0);	/* EOB decision */
    3504:	e13ffc17 	ldw	r4,-16(fp)
    3508:	e17ff817 	ldw	r5,-32(fp)
    350c:	000d883a 	mov	r6,zero
    3510:	0001a980 	call	1a98 <arith_encode>
			while ((v = (*block)[natural_order[k]]) == 0) {
    3514:	00000b06 	br	3544 <encode_mcu+0x554>
				arith_encode(cinfo, st + 1, 0); st += 3; k++;
    3518:	e0bff817 	ldw	r2,-32(fp)
    351c:	11400044 	addi	r5,r2,1
    3520:	e13ffc17 	ldw	r4,-16(fp)
    3524:	000d883a 	mov	r6,zero
    3528:	0001a980 	call	1a98 <arith_encode>
    352c:	e0bff817 	ldw	r2,-32(fp)
    3530:	108000c4 	addi	r2,r2,3
    3534:	e0bff815 	stw	r2,-32(fp)
    3538:	e0bff417 	ldw	r2,-48(fp)
    353c:	10800044 	addi	r2,r2,1
    3540:	e0bff415 	stw	r2,-48(fp)

		/* Figure F.5: Encode_AC_Coefficients */
		for (k = 1; k <= ke; k++) {
			st = entropy->ac_stats[tbl] + 3 * (k - 1);
			arith_encode(cinfo, st, 0);	/* EOB decision */
			while ((v = (*block)[natural_order[k]]) == 0) {
    3544:	e0bff417 	ldw	r2,-48(fp)
    3548:	1085883a 	add	r2,r2,r2
    354c:	1085883a 	add	r2,r2,r2
    3550:	1007883a 	mov	r3,r2
    3554:	e0bfef17 	ldw	r2,-68(fp)
    3558:	1885883a 	add	r2,r3,r2
    355c:	10800017 	ldw	r2,0(r2)
    3560:	e0fff917 	ldw	r3,-28(fp)
    3564:	1085883a 	add	r2,r2,r2
    3568:	10c5883a 	add	r2,r2,r3
    356c:	1080000b 	ldhu	r2,0(r2)
    3570:	10bfffcc 	andi	r2,r2,65535
    3574:	10a0001c 	xori	r2,r2,32768
    3578:	10a00004 	addi	r2,r2,-32768
    357c:	e0bff215 	stw	r2,-56(fp)
    3580:	e0bff217 	ldw	r2,-56(fp)
    3584:	1005003a 	cmpeq	r2,r2,zero
    3588:	103fe31e 	bne	r2,zero,3518 <encode_mcu+0x528>
				arith_encode(cinfo, st + 1, 0); st += 3; k++;
			}
			arith_encode(cinfo, st + 1, 1);
    358c:	e0bff817 	ldw	r2,-32(fp)
    3590:	11400044 	addi	r5,r2,1
    3594:	e13ffc17 	ldw	r4,-16(fp)
    3598:	01800044 	movi	r6,1
    359c:	0001a980 	call	1a98 <arith_encode>
			/* Figure F.6: Encoding nonzero value v */
			/* Figure F.7: Encoding the sign of v */
			if (v > 0) {
    35a0:	e0bff217 	ldw	r2,-56(fp)
    35a4:	10800050 	cmplti	r2,r2,1
    35a8:	1000061e 	bne	r2,zero,35c4 <encode_mcu+0x5d4>
				arith_encode(cinfo, entropy->fixed_bin, 0);
    35ac:	e0bffb17 	ldw	r2,-20(fp)
    35b0:	11403304 	addi	r5,r2,204
    35b4:	e13ffc17 	ldw	r4,-16(fp)
    35b8:	000d883a 	mov	r6,zero
    35bc:	0001a980 	call	1a98 <arith_encode>
    35c0:	00000806 	br	35e4 <encode_mcu+0x5f4>
			} else {
				v = -v;
    35c4:	e0bff217 	ldw	r2,-56(fp)
    35c8:	0085c83a 	sub	r2,zero,r2
    35cc:	e0bff215 	stw	r2,-56(fp)
				arith_encode(cinfo, entropy->fixed_bin, 1);
    35d0:	e0bffb17 	ldw	r2,-20(fp)
    35d4:	11403304 	addi	r5,r2,204
    35d8:	e13ffc17 	ldw	r4,-16(fp)
    35dc:	01800044 	movi	r6,1
    35e0:	0001a980 	call	1a98 <arith_encode>
			}
			st += 2;
    35e4:	e0bff817 	ldw	r2,-32(fp)
    35e8:	10800084 	addi	r2,r2,2
    35ec:	e0bff815 	stw	r2,-32(fp)
			/* Figure F.8: Encoding the magnitude category of v */
			m = 0;
    35f0:	e03ff015 	stw	zero,-64(fp)
			if (v -= 1) {
    35f4:	e0bff217 	ldw	r2,-56(fp)
    35f8:	10bfffc4 	addi	r2,r2,-1
    35fc:	e0bff215 	stw	r2,-56(fp)
    3600:	e0bff217 	ldw	r2,-56(fp)
    3604:	1005003a 	cmpeq	r2,r2,zero
    3608:	10003f1e 	bne	r2,zero,3708 <encode_mcu+0x718>
				arith_encode(cinfo, st, 1);
    360c:	e13ffc17 	ldw	r4,-16(fp)
    3610:	e17ff817 	ldw	r5,-32(fp)
    3614:	01800044 	movi	r6,1
    3618:	0001a980 	call	1a98 <arith_encode>
				m = 1;
    361c:	00800044 	movi	r2,1
    3620:	e0bff015 	stw	r2,-64(fp)
				v2 = v;
    3624:	e0bff217 	ldw	r2,-56(fp)
    3628:	e0bff115 	stw	r2,-60(fp)
				if (v2 >>= 1) {
    362c:	e0bff117 	ldw	r2,-60(fp)
    3630:	1005d07a 	srai	r2,r2,1
    3634:	e0bff115 	stw	r2,-60(fp)
    3638:	e0bff117 	ldw	r2,-60(fp)
    363c:	1005003a 	cmpeq	r2,r2,zero
    3640:	1000311e 	bne	r2,zero,3708 <encode_mcu+0x718>
					arith_encode(cinfo, st, 1);
    3644:	e13ffc17 	ldw	r4,-16(fp)
    3648:	e17ff817 	ldw	r5,-32(fp)
    364c:	01800044 	movi	r6,1
    3650:	0001a980 	call	1a98 <arith_encode>
					m <<= 1;
    3654:	e0bff017 	ldw	r2,-64(fp)
    3658:	1085883a 	add	r2,r2,r2
    365c:	e0bff015 	stw	r2,-64(fp)
					st = entropy->ac_stats[tbl] +
    3660:	e0bff517 	ldw	r2,-44(fp)
    3664:	e0fffb17 	ldw	r3,-20(fp)
    3668:	1085883a 	add	r2,r2,r2
    366c:	1085883a 	add	r2,r2,r2
    3670:	10c5883a 	add	r2,r2,r3
    3674:	10802304 	addi	r2,r2,140
    3678:	10800017 	ldw	r2,0(r2)
    367c:	e0bfff15 	stw	r2,-4(fp)
    3680:	e0fff517 	ldw	r3,-44(fp)
    3684:	e0bffc17 	ldw	r2,-16(fp)
    3688:	1885883a 	add	r2,r3,r2
    368c:	10802d04 	addi	r2,r2,180
    3690:	10800003 	ldbu	r2,0(r2)
    3694:	10c03fcc 	andi	r3,r2,255
    3698:	e0bff417 	ldw	r2,-48(fp)
    369c:	18800316 	blt	r3,r2,36ac <encode_mcu+0x6bc>
    36a0:	00802f44 	movi	r2,189
    36a4:	e0bffe15 	stw	r2,-8(fp)
    36a8:	00000206 	br	36b4 <encode_mcu+0x6c4>
    36ac:	00c03644 	movi	r3,217
    36b0:	e0fffe15 	stw	r3,-8(fp)
    36b4:	e13fff17 	ldw	r4,-4(fp)
    36b8:	e0fffe17 	ldw	r3,-8(fp)
    36bc:	20c5883a 	add	r2,r4,r3
    36c0:	e0bff815 	stw	r2,-32(fp)
						(k <= cinfo->arith_ac_K[tbl] ? 189 : 217);
					while (v2 >>= 1) {
    36c4:	00000a06 	br	36f0 <encode_mcu+0x700>
						arith_encode(cinfo, st, 1);
    36c8:	e13ffc17 	ldw	r4,-16(fp)
    36cc:	e17ff817 	ldw	r5,-32(fp)
    36d0:	01800044 	movi	r6,1
    36d4:	0001a980 	call	1a98 <arith_encode>
						m <<= 1;
    36d8:	e0bff017 	ldw	r2,-64(fp)
    36dc:	1085883a 	add	r2,r2,r2
    36e0:	e0bff015 	stw	r2,-64(fp)
						st += 1;
    36e4:	e0bff817 	ldw	r2,-32(fp)
    36e8:	10800044 	addi	r2,r2,1
    36ec:	e0bff815 	stw	r2,-32(fp)
				if (v2 >>= 1) {
					arith_encode(cinfo, st, 1);
					m <<= 1;
					st = entropy->ac_stats[tbl] +
						(k <= cinfo->arith_ac_K[tbl] ? 189 : 217);
					while (v2 >>= 1) {
    36f0:	e0bff117 	ldw	r2,-60(fp)
    36f4:	1005d07a 	srai	r2,r2,1
    36f8:	e0bff115 	stw	r2,-60(fp)
    36fc:	e0bff117 	ldw	r2,-60(fp)
    3700:	1004c03a 	cmpne	r2,r2,zero
    3704:	103ff01e 	bne	r2,zero,36c8 <encode_mcu+0x6d8>
						m <<= 1;
						st += 1;
					}
				}
			}
			arith_encode(cinfo, st, 0);
    3708:	e13ffc17 	ldw	r4,-16(fp)
    370c:	e17ff817 	ldw	r5,-32(fp)
    3710:	000d883a 	mov	r6,zero
    3714:	0001a980 	call	1a98 <arith_encode>
			/* Figure F.9: Encoding the magnitude bit pattern of v */
			st += 14;
    3718:	e0bff817 	ldw	r2,-32(fp)
    371c:	10800384 	addi	r2,r2,14
    3720:	e0bff815 	stw	r2,-32(fp)
			while (m >>= 1)
    3724:	00000706 	br	3744 <encode_mcu+0x754>
				arith_encode(cinfo, st, (m & v) ? 1 : 0);
    3728:	e0fff017 	ldw	r3,-64(fp)
    372c:	e0bff217 	ldw	r2,-56(fp)
    3730:	1884703a 	and	r2,r3,r2
    3734:	100cc03a 	cmpne	r6,r2,zero
    3738:	e13ffc17 	ldw	r4,-16(fp)
    373c:	e17ff817 	ldw	r5,-32(fp)
    3740:	0001a980 	call	1a98 <arith_encode>
				}
			}
			arith_encode(cinfo, st, 0);
			/* Figure F.9: Encoding the magnitude bit pattern of v */
			st += 14;
			while (m >>= 1)
    3744:	e0bff017 	ldw	r2,-64(fp)
    3748:	1005d07a 	srai	r2,r2,1
    374c:	e0bff015 	stw	r2,-64(fp)
    3750:	e0bff017 	ldw	r2,-64(fp)
    3754:	1004c03a 	cmpne	r2,r2,zero
    3758:	103ff31e 	bne	r2,zero,3728 <encode_mcu+0x738>
		/* Establish EOB (end-of-block) index */
		for (ke = cinfo->lim_Se; ke > 0; ke--)
			if ((*block)[natural_order[ke]]) break;

		/* Figure F.5: Encode_AC_Coefficients */
		for (k = 1; k <= ke; k++) {
    375c:	e0bff417 	ldw	r2,-48(fp)
    3760:	10800044 	addi	r2,r2,1
    3764:	e0bff415 	stw	r2,-48(fp)
    3768:	e0fff417 	ldw	r3,-48(fp)
    376c:	e0bff317 	ldw	r2,-52(fp)
    3770:	10ff560e 	bge	r2,r3,34cc <encode_mcu+0x4dc>
			st += 14;
			while (m >>= 1)
				arith_encode(cinfo, st, (m & v) ? 1 : 0);
		}
		/* Encode EOB decision only if k <= cinfo->lim_Se */
		if (k <= cinfo->lim_Se) {
    3774:	e0bffc17 	ldw	r2,-16(fp)
    3778:	10c05b17 	ldw	r3,364(r2)
    377c:	e0bff417 	ldw	r2,-48(fp)
    3780:	18801216 	blt	r3,r2,37cc <encode_mcu+0x7dc>
			st = entropy->ac_stats[tbl] + 3 * (k - 1);
    3784:	e0bff517 	ldw	r2,-44(fp)
    3788:	e0fffb17 	ldw	r3,-20(fp)
    378c:	1085883a 	add	r2,r2,r2
    3790:	1085883a 	add	r2,r2,r2
    3794:	10c5883a 	add	r2,r2,r3
    3798:	10802304 	addi	r2,r2,140
    379c:	11000017 	ldw	r4,0(r2)
    37a0:	e0fff417 	ldw	r3,-48(fp)
    37a4:	1805883a 	mov	r2,r3
    37a8:	1085883a 	add	r2,r2,r2
    37ac:	10c5883a 	add	r2,r2,r3
    37b0:	2085883a 	add	r2,r4,r2
    37b4:	10bfff44 	addi	r2,r2,-3
    37b8:	e0bff815 	stw	r2,-32(fp)
			arith_encode(cinfo, st, 1);
    37bc:	e13ffc17 	ldw	r4,-16(fp)
    37c0:	e17ff817 	ldw	r5,-32(fp)
    37c4:	01800044 	movi	r6,1
    37c8:	0001a980 	call	1a98 <arith_encode>
	}

	natural_order = cinfo->natural_order;

	/* Encode the MCU data blocks */
	for (blkn = 0; blkn < cinfo->blocks_in_MCU; blkn++) {
    37cc:	e0bff717 	ldw	r2,-36(fp)
    37d0:	10800044 	addi	r2,r2,1
    37d4:	e0bff715 	stw	r2,-36(fp)
    37d8:	e0bffc17 	ldw	r2,-16(fp)
    37dc:	10c04a17 	ldw	r3,296(r2)
    37e0:	e0bff717 	ldw	r2,-36(fp)
    37e4:	10fe2f16 	blt	r2,r3,30a4 <encode_mcu+0xb4>
			st = entropy->ac_stats[tbl] + 3 * (k - 1);
			arith_encode(cinfo, st, 1);
		}
	}

	return TRUE;
    37e8:	00800044 	movi	r2,1
}
    37ec:	e037883a 	mov	sp,fp
    37f0:	dfc00117 	ldw	ra,4(sp)
    37f4:	df000017 	ldw	fp,0(sp)
    37f8:	dec00204 	addi	sp,sp,8
    37fc:	f800283a 	ret

00003800 <start_pass>:
* Initialize for an arithmetic-compressed scan.
*/

METHODDEF(void)
	start_pass (j_compress_ptr cinfo, boolean gather_statistics)
{
    3800:	defff704 	addi	sp,sp,-36
    3804:	dfc00815 	stw	ra,32(sp)
    3808:	df000715 	stw	fp,28(sp)
    380c:	dc000615 	stw	r16,24(sp)
    3810:	df000604 	addi	fp,sp,24
    3814:	e13ffe15 	stw	r4,-8(fp)
    3818:	e17fff05 	stb	r5,-4(fp)
	arith_entropy_ptr entropy = (arith_entropy_ptr) cinfo->entropy;
    381c:	e0bffe17 	ldw	r2,-8(fp)
    3820:	10806417 	ldw	r2,400(r2)
    3824:	e0bffd15 	stw	r2,-12(fp)
	int ci, tbl;
	jpeg_component_info * compptr;

	if (gather_statistics)
    3828:	e0bfff03 	ldbu	r2,-4(fp)
    382c:	1005003a 	cmpeq	r2,r2,zero
    3830:	1000091e 	bne	r2,zero,3858 <start_pass+0x58>
		/* Make sure to avoid that in the master control logic!
		* We are fully adaptive here and need no extra
		* statistics gathering pass!
		*/
		ERREXIT(cinfo, JERR_NOT_COMPILED);
    3834:	e0bffe17 	ldw	r2,-8(fp)
    3838:	10c00017 	ldw	r3,0(r2)
    383c:	00800c44 	movi	r2,49
    3840:	18800515 	stw	r2,20(r3)
    3844:	e0bffe17 	ldw	r2,-8(fp)
    3848:	10800017 	ldw	r2,0(r2)
    384c:	10800017 	ldw	r2,0(r2)
    3850:	e13ffe17 	ldw	r4,-8(fp)
    3854:	103ee83a 	callr	r2

	/* We assume jcmaster.c already validated the progressive scan parameters. */

	/* Select execution routines */
	if (cinfo->progressive_mode) {
    3858:	e0bffe17 	ldw	r2,-8(fp)
    385c:	10803d03 	ldbu	r2,244(r2)
    3860:	10803fcc 	andi	r2,r2,255
    3864:	1005003a 	cmpeq	r2,r2,zero
    3868:	1000201e 	bne	r2,zero,38ec <start_pass+0xec>
		if (cinfo->Ah == 0) {
    386c:	e0bffe17 	ldw	r2,-8(fp)
    3870:	10805717 	ldw	r2,348(r2)
    3874:	1004c03a 	cmpne	r2,r2,zero
    3878:	10000e1e 	bne	r2,zero,38b4 <start_pass+0xb4>
			if (cinfo->Ss == 0)
    387c:	e0bffe17 	ldw	r2,-8(fp)
    3880:	10805517 	ldw	r2,340(r2)
    3884:	1004c03a 	cmpne	r2,r2,zero
    3888:	1000051e 	bne	r2,zero,38a0 <start_pass+0xa0>
				entropy->pub.encode_mcu = encode_mcu_DC_first;
    388c:	e0fffd17 	ldw	r3,-12(fp)
    3890:	00800034 	movhi	r2,0
    3894:	10882604 	addi	r2,r2,8344
    3898:	18800115 	stw	r2,4(r3)
    389c:	00001706 	br	38fc <start_pass+0xfc>
			else
				entropy->pub.encode_mcu = encode_mcu_AC_first;
    38a0:	e0fffd17 	ldw	r3,-12(fp)
    38a4:	00800034 	movhi	r2,0
    38a8:	10894604 	addi	r2,r2,9496
    38ac:	18800115 	stw	r2,4(r3)
    38b0:	00001206 	br	38fc <start_pass+0xfc>
		} else {
			if (cinfo->Ss == 0)
    38b4:	e0bffe17 	ldw	r2,-8(fp)
    38b8:	10805517 	ldw	r2,340(r2)
    38bc:	1004c03a 	cmpne	r2,r2,zero
    38c0:	1000051e 	bne	r2,zero,38d8 <start_pass+0xd8>
				entropy->pub.encode_mcu = encode_mcu_DC_refine;
    38c4:	e0fffd17 	ldw	r3,-12(fp)
    38c8:	00800034 	movhi	r2,0
    38cc:	108a8504 	addi	r2,r2,10772
    38d0:	18800115 	stw	r2,4(r3)
    38d4:	00000906 	br	38fc <start_pass+0xfc>
			else
				entropy->pub.encode_mcu = encode_mcu_AC_refine;
    38d8:	e0fffd17 	ldw	r3,-12(fp)
    38dc:	00800034 	movhi	r2,0
    38e0:	108ad304 	addi	r2,r2,11084
    38e4:	18800115 	stw	r2,4(r3)
    38e8:	00000406 	br	38fc <start_pass+0xfc>
		}
	} else
		entropy->pub.encode_mcu = encode_mcu;
    38ec:	e0fffd17 	ldw	r3,-12(fp)
    38f0:	00800034 	movhi	r2,0
    38f4:	108bfc04 	addi	r2,r2,12272
    38f8:	18800115 	stw	r2,4(r3)

	/* Allocate & initialize requested statistics areas */
	for (ci = 0; ci < cinfo->comps_in_scan; ci++) {
    38fc:	e03ffc15 	stw	zero,-16(fp)
    3900:	00009706 	br	3b60 <start_pass+0x360>
		compptr = cinfo->cur_comp_info[ci];
    3904:	e0bffc17 	ldw	r2,-16(fp)
    3908:	e0fffe17 	ldw	r3,-8(fp)
    390c:	1085883a 	add	r2,r2,r2
    3910:	1085883a 	add	r2,r2,r2
    3914:	10c5883a 	add	r2,r2,r3
    3918:	10804404 	addi	r2,r2,272
    391c:	10800017 	ldw	r2,0(r2)
    3920:	e0bffa15 	stw	r2,-24(fp)
		/* DC needs no table for refinement scan */
		if (cinfo->Ss == 0 && cinfo->Ah == 0) {
    3924:	e0bffe17 	ldw	r2,-8(fp)
    3928:	10805517 	ldw	r2,340(r2)
    392c:	1004c03a 	cmpne	r2,r2,zero
    3930:	10004b1e 	bne	r2,zero,3a60 <start_pass+0x260>
    3934:	e0bffe17 	ldw	r2,-8(fp)
    3938:	10805717 	ldw	r2,348(r2)
    393c:	1004c03a 	cmpne	r2,r2,zero
    3940:	1000471e 	bne	r2,zero,3a60 <start_pass+0x260>
			tbl = compptr->dc_tbl_no;
    3944:	e0bffa17 	ldw	r2,-24(fp)
    3948:	10800517 	ldw	r2,20(r2)
    394c:	e0bffb15 	stw	r2,-20(fp)
			if (tbl < 0 || tbl >= NUM_ARITH_TBLS)
    3950:	e0bffb17 	ldw	r2,-20(fp)
    3954:	1004803a 	cmplt	r2,r2,zero
    3958:	1000031e 	bne	r2,zero,3968 <start_pass+0x168>
    395c:	e0bffb17 	ldw	r2,-20(fp)
    3960:	10800410 	cmplti	r2,r2,16
    3964:	10000d1e 	bne	r2,zero,399c <start_pass+0x19c>
				ERREXIT1(cinfo, JERR_NO_ARITH_TABLE, tbl);
    3968:	e0bffe17 	ldw	r2,-8(fp)
    396c:	10c00017 	ldw	r3,0(r2)
    3970:	00800c84 	movi	r2,50
    3974:	18800515 	stw	r2,20(r3)
    3978:	e0bffe17 	ldw	r2,-8(fp)
    397c:	10c00017 	ldw	r3,0(r2)
    3980:	e0bffb17 	ldw	r2,-20(fp)
    3984:	18800615 	stw	r2,24(r3)
    3988:	e0bffe17 	ldw	r2,-8(fp)
    398c:	10800017 	ldw	r2,0(r2)
    3990:	10800017 	ldw	r2,0(r2)
    3994:	e13ffe17 	ldw	r4,-8(fp)
    3998:	103ee83a 	callr	r2
			if (entropy->dc_stats[tbl] == NULL)
    399c:	e0bffb17 	ldw	r2,-20(fp)
    39a0:	e0fffd17 	ldw	r3,-12(fp)
    39a4:	1085883a 	add	r2,r2,r2
    39a8:	1085883a 	add	r2,r2,r2
    39ac:	10c5883a 	add	r2,r2,r3
    39b0:	10801304 	addi	r2,r2,76
    39b4:	10800017 	ldw	r2,0(r2)
    39b8:	1004c03a 	cmpne	r2,r2,zero
    39bc:	10000f1e 	bne	r2,zero,39fc <start_pass+0x1fc>
				entropy->dc_stats[tbl] = (unsigned char *) (*cinfo->mem->alloc_small)
    39c0:	e43ffb17 	ldw	r16,-20(fp)
    39c4:	e0bffe17 	ldw	r2,-8(fp)
    39c8:	10800117 	ldw	r2,4(r2)
    39cc:	10800017 	ldw	r2,0(r2)
    39d0:	e13ffe17 	ldw	r4,-8(fp)
    39d4:	01400044 	movi	r5,1
    39d8:	01801004 	movi	r6,64
    39dc:	103ee83a 	callr	r2
    39e0:	1009883a 	mov	r4,r2
    39e4:	e0fffd17 	ldw	r3,-12(fp)
    39e8:	8405883a 	add	r2,r16,r16
    39ec:	1085883a 	add	r2,r2,r2
    39f0:	10c5883a 	add	r2,r2,r3
    39f4:	10801304 	addi	r2,r2,76
    39f8:	11000015 	stw	r4,0(r2)
				((j_common_ptr) cinfo, JPOOL_IMAGE, DC_STAT_BINS);
			MEMZERO(entropy->dc_stats[tbl], DC_STAT_BINS);
    39fc:	e0bffb17 	ldw	r2,-20(fp)
    3a00:	e0fffd17 	ldw	r3,-12(fp)
    3a04:	1085883a 	add	r2,r2,r2
    3a08:	1085883a 	add	r2,r2,r2
    3a0c:	10c5883a 	add	r2,r2,r3
    3a10:	10801304 	addi	r2,r2,76
    3a14:	10800017 	ldw	r2,0(r2)
    3a18:	1009883a 	mov	r4,r2
    3a1c:	01801004 	movi	r6,64
    3a20:	000b883a 	mov	r5,zero
    3a24:	002e4140 	call	2e414 <memset>
			/* Initialize DC predictions to 0 */
			entropy->last_dc_val[ci] = 0;
    3a28:	e0bffc17 	ldw	r2,-16(fp)
    3a2c:	e0fffd17 	ldw	r3,-12(fp)
    3a30:	1085883a 	add	r2,r2,r2
    3a34:	1085883a 	add	r2,r2,r2
    3a38:	10c5883a 	add	r2,r2,r3
    3a3c:	10800904 	addi	r2,r2,36
    3a40:	10000015 	stw	zero,0(r2)
			entropy->dc_context[ci] = 0;
    3a44:	e0bffc17 	ldw	r2,-16(fp)
    3a48:	e0fffd17 	ldw	r3,-12(fp)
    3a4c:	1085883a 	add	r2,r2,r2
    3a50:	1085883a 	add	r2,r2,r2
    3a54:	10c5883a 	add	r2,r2,r3
    3a58:	10800d04 	addi	r2,r2,52
    3a5c:	10000015 	stw	zero,0(r2)
		}
		/* AC needs no table when not present */
		if (cinfo->Se) {
    3a60:	e0bffe17 	ldw	r2,-8(fp)
    3a64:	10805617 	ldw	r2,344(r2)
    3a68:	1005003a 	cmpeq	r2,r2,zero
    3a6c:	1000391e 	bne	r2,zero,3b54 <start_pass+0x354>
			tbl = compptr->ac_tbl_no;
    3a70:	e0bffa17 	ldw	r2,-24(fp)
    3a74:	10800617 	ldw	r2,24(r2)
    3a78:	e0bffb15 	stw	r2,-20(fp)
			if (tbl < 0 || tbl >= NUM_ARITH_TBLS)
    3a7c:	e0bffb17 	ldw	r2,-20(fp)
    3a80:	1004803a 	cmplt	r2,r2,zero
    3a84:	1000031e 	bne	r2,zero,3a94 <start_pass+0x294>
    3a88:	e0bffb17 	ldw	r2,-20(fp)
    3a8c:	10800410 	cmplti	r2,r2,16
    3a90:	10000d1e 	bne	r2,zero,3ac8 <start_pass+0x2c8>
				ERREXIT1(cinfo, JERR_NO_ARITH_TABLE, tbl);
    3a94:	e0bffe17 	ldw	r2,-8(fp)
    3a98:	10c00017 	ldw	r3,0(r2)
    3a9c:	00800c84 	movi	r2,50
    3aa0:	18800515 	stw	r2,20(r3)
    3aa4:	e0bffe17 	ldw	r2,-8(fp)
    3aa8:	10c00017 	ldw	r3,0(r2)
    3aac:	e0bffb17 	ldw	r2,-20(fp)
    3ab0:	18800615 	stw	r2,24(r3)
    3ab4:	e0bffe17 	ldw	r2,-8(fp)
    3ab8:	10800017 	ldw	r2,0(r2)
    3abc:	10800017 	ldw	r2,0(r2)
    3ac0:	e13ffe17 	ldw	r4,-8(fp)
    3ac4:	103ee83a 	callr	r2
			if (entropy->ac_stats[tbl] == NULL)
    3ac8:	e0bffb17 	ldw	r2,-20(fp)
    3acc:	e0fffd17 	ldw	r3,-12(fp)
    3ad0:	1085883a 	add	r2,r2,r2
    3ad4:	1085883a 	add	r2,r2,r2
    3ad8:	10c5883a 	add	r2,r2,r3
    3adc:	10802304 	addi	r2,r2,140
    3ae0:	10800017 	ldw	r2,0(r2)
    3ae4:	1004c03a 	cmpne	r2,r2,zero
    3ae8:	10000f1e 	bne	r2,zero,3b28 <start_pass+0x328>
				entropy->ac_stats[tbl] = (unsigned char *) (*cinfo->mem->alloc_small)
    3aec:	e43ffb17 	ldw	r16,-20(fp)
    3af0:	e0bffe17 	ldw	r2,-8(fp)
    3af4:	10800117 	ldw	r2,4(r2)
    3af8:	10800017 	ldw	r2,0(r2)
    3afc:	e13ffe17 	ldw	r4,-8(fp)
    3b00:	01400044 	movi	r5,1
    3b04:	01804004 	movi	r6,256
    3b08:	103ee83a 	callr	r2
    3b0c:	1009883a 	mov	r4,r2
    3b10:	e0fffd17 	ldw	r3,-12(fp)
    3b14:	8405883a 	add	r2,r16,r16
    3b18:	1085883a 	add	r2,r2,r2
    3b1c:	10c5883a 	add	r2,r2,r3
    3b20:	10802304 	addi	r2,r2,140
    3b24:	11000015 	stw	r4,0(r2)
				((j_common_ptr) cinfo, JPOOL_IMAGE, AC_STAT_BINS);
			MEMZERO(entropy->ac_stats[tbl], AC_STAT_BINS);
    3b28:	e0bffb17 	ldw	r2,-20(fp)
    3b2c:	e0fffd17 	ldw	r3,-12(fp)
    3b30:	1085883a 	add	r2,r2,r2
    3b34:	1085883a 	add	r2,r2,r2
    3b38:	10c5883a 	add	r2,r2,r3
    3b3c:	10802304 	addi	r2,r2,140
    3b40:	10800017 	ldw	r2,0(r2)
    3b44:	1009883a 	mov	r4,r2
    3b48:	01804004 	movi	r6,256
    3b4c:	000b883a 	mov	r5,zero
    3b50:	002e4140 	call	2e414 <memset>
		}
	} else
		entropy->pub.encode_mcu = encode_mcu;

	/* Allocate & initialize requested statistics areas */
	for (ci = 0; ci < cinfo->comps_in_scan; ci++) {
    3b54:	e0bffc17 	ldw	r2,-16(fp)
    3b58:	10800044 	addi	r2,r2,1
    3b5c:	e0bffc15 	stw	r2,-16(fp)
    3b60:	e0bffe17 	ldw	r2,-8(fp)
    3b64:	10c04317 	ldw	r3,268(r2)
    3b68:	e0bffc17 	ldw	r2,-16(fp)
    3b6c:	10ff6516 	blt	r2,r3,3904 <start_pass+0x104>
#endif
		}
	}

	/* Initialize arithmetic encoding variables */
	entropy->c = 0;
    3b70:	e0bffd17 	ldw	r2,-12(fp)
    3b74:	10000315 	stw	zero,12(r2)
	entropy->a = 0x10000L;
    3b78:	e0fffd17 	ldw	r3,-12(fp)
    3b7c:	00800074 	movhi	r2,1
    3b80:	18800415 	stw	r2,16(r3)
	entropy->sc = 0;
    3b84:	e0bffd17 	ldw	r2,-12(fp)
    3b88:	10000515 	stw	zero,20(r2)
	entropy->zc = 0;
    3b8c:	e0bffd17 	ldw	r2,-12(fp)
    3b90:	10000615 	stw	zero,24(r2)
	entropy->ct = 11;
    3b94:	e0fffd17 	ldw	r3,-12(fp)
    3b98:	008002c4 	movi	r2,11
    3b9c:	18800715 	stw	r2,28(r3)
	entropy->buffer = -1;  /* empty */
    3ba0:	e0fffd17 	ldw	r3,-12(fp)
    3ba4:	00bfffc4 	movi	r2,-1
    3ba8:	18800815 	stw	r2,32(r3)

	/* Initialize restart stuff */
	entropy->restarts_to_go = cinfo->restart_interval;
    3bac:	e0bffe17 	ldw	r2,-8(fp)
    3bb0:	10c03717 	ldw	r3,220(r2)
    3bb4:	e0bffd17 	ldw	r2,-12(fp)
    3bb8:	10c01115 	stw	r3,68(r2)
	entropy->next_restart_num = 0;
    3bbc:	e0bffd17 	ldw	r2,-12(fp)
    3bc0:	10001215 	stw	zero,72(r2)
}
    3bc4:	e037883a 	mov	sp,fp
    3bc8:	dfc00217 	ldw	ra,8(sp)
    3bcc:	df000117 	ldw	fp,4(sp)
    3bd0:	dc000017 	ldw	r16,0(sp)
    3bd4:	dec00304 	addi	sp,sp,12
    3bd8:	f800283a 	ret

00003bdc <jinit_arith_encoder>:
* Module initialization routine for arithmetic entropy encoding.
*/

GLOBAL(void)
	jinit_arith_encoder (j_compress_ptr cinfo)
{
    3bdc:	defffb04 	addi	sp,sp,-20
    3be0:	dfc00415 	stw	ra,16(sp)
    3be4:	df000315 	stw	fp,12(sp)
    3be8:	df000304 	addi	fp,sp,12
    3bec:	e13fff15 	stw	r4,-4(fp)
	arith_entropy_ptr entropy;
	int i;

	entropy = (arith_entropy_ptr)
    3bf0:	e0bfff17 	ldw	r2,-4(fp)
    3bf4:	10800117 	ldw	r2,4(r2)
    3bf8:	10800017 	ldw	r2,0(r2)
    3bfc:	e13fff17 	ldw	r4,-4(fp)
    3c00:	01400044 	movi	r5,1
    3c04:	01803404 	movi	r6,208
    3c08:	103ee83a 	callr	r2
    3c0c:	e0bffe15 	stw	r2,-8(fp)
		(*cinfo->mem->alloc_small) ((j_common_ptr) cinfo, JPOOL_IMAGE,
		SIZEOF(arith_entropy_encoder));
	cinfo->entropy = (struct jpeg_entropy_encoder *) entropy;
    3c10:	e0fffe17 	ldw	r3,-8(fp)
    3c14:	e0bfff17 	ldw	r2,-4(fp)
    3c18:	10c06415 	stw	r3,400(r2)
	entropy->pub.start_pass = start_pass;
    3c1c:	e0fffe17 	ldw	r3,-8(fp)
    3c20:	00800034 	movhi	r2,0
    3c24:	108e0004 	addi	r2,r2,14336
    3c28:	18800015 	stw	r2,0(r3)
	entropy->pub.finish_pass = finish_pass;
    3c2c:	e0fffe17 	ldw	r3,-8(fp)
    3c30:	00800034 	movhi	r2,0
    3c34:	1085cd04 	addi	r2,r2,5940
    3c38:	18800215 	stw	r2,8(r3)

	/* Mark tables unallocated */
	for (i = 0; i < NUM_ARITH_TBLS; i++) {
    3c3c:	e03ffd15 	stw	zero,-12(fp)
    3c40:	00001106 	br	3c88 <jinit_arith_encoder+0xac>
		entropy->dc_stats[i] = NULL;
    3c44:	e0bffd17 	ldw	r2,-12(fp)
    3c48:	e0fffe17 	ldw	r3,-8(fp)
    3c4c:	1085883a 	add	r2,r2,r2
    3c50:	1085883a 	add	r2,r2,r2
    3c54:	10c5883a 	add	r2,r2,r3
    3c58:	10801304 	addi	r2,r2,76
    3c5c:	10000015 	stw	zero,0(r2)
		entropy->ac_stats[i] = NULL;
    3c60:	e0bffd17 	ldw	r2,-12(fp)
    3c64:	e0fffe17 	ldw	r3,-8(fp)
    3c68:	1085883a 	add	r2,r2,r2
    3c6c:	1085883a 	add	r2,r2,r2
    3c70:	10c5883a 	add	r2,r2,r3
    3c74:	10802304 	addi	r2,r2,140
    3c78:	10000015 	stw	zero,0(r2)
	cinfo->entropy = (struct jpeg_entropy_encoder *) entropy;
	entropy->pub.start_pass = start_pass;
	entropy->pub.finish_pass = finish_pass;

	/* Mark tables unallocated */
	for (i = 0; i < NUM_ARITH_TBLS; i++) {
    3c7c:	e0bffd17 	ldw	r2,-12(fp)
    3c80:	10800044 	addi	r2,r2,1
    3c84:	e0bffd15 	stw	r2,-12(fp)
    3c88:	e0bffd17 	ldw	r2,-12(fp)
    3c8c:	10800410 	cmplti	r2,r2,16
    3c90:	103fec1e 	bne	r2,zero,3c44 <jinit_arith_encoder+0x68>
		entropy->dc_stats[i] = NULL;
		entropy->ac_stats[i] = NULL;
	}

	/* Initialize index for fixed probability estimation */
	entropy->fixed_bin[0] = 113;
    3c94:	e0fffe17 	ldw	r3,-8(fp)
    3c98:	00801c44 	movi	r2,113
    3c9c:	18803305 	stb	r2,204(r3)
}
    3ca0:	e037883a 	mov	sp,fp
    3ca4:	dfc00117 	ldw	ra,4(sp)
    3ca8:	df000017 	ldw	fp,0(sp)
    3cac:	dec00204 	addi	sp,sp,8
    3cb0:	f800283a 	ret

00003cb4 <start_iMCU_row>:


LOCAL(void)
	start_iMCU_row (j_compress_ptr cinfo)
	/* Reset within-iMCU-row counters for a new row */
{
    3cb4:	defffd04 	addi	sp,sp,-12
    3cb8:	df000215 	stw	fp,8(sp)
    3cbc:	df000204 	addi	fp,sp,8
    3cc0:	e13fff15 	stw	r4,-4(fp)
	my_coef_ptr coef = (my_coef_ptr) cinfo->coef;
    3cc4:	e0bfff17 	ldw	r2,-4(fp)
    3cc8:	10805f17 	ldw	r2,380(r2)
    3ccc:	e0bffe15 	stw	r2,-8(fp)

	/* In an interleaved scan, an MCU row is the same as an iMCU row.
	* In a noninterleaved scan, an iMCU row has v_samp_factor MCU rows.
	* But at the bottom of the image, process only what's left.
	*/
	if (cinfo->comps_in_scan > 1) {
    3cd0:	e0bfff17 	ldw	r2,-4(fp)
    3cd4:	10804317 	ldw	r2,268(r2)
    3cd8:	10800090 	cmplti	r2,r2,2
    3cdc:	1000041e 	bne	r2,zero,3cf0 <start_iMCU_row+0x3c>
		coef->MCU_rows_per_iMCU_row = 1;
    3ce0:	e0fffe17 	ldw	r3,-8(fp)
    3ce4:	00800044 	movi	r2,1
    3ce8:	18800515 	stw	r2,20(r3)
    3cec:	00001106 	br	3d34 <start_iMCU_row+0x80>
	} else {
		if (coef->iMCU_row_num < (cinfo->total_iMCU_rows-1))
    3cf0:	e0bffe17 	ldw	r2,-8(fp)
    3cf4:	10c00217 	ldw	r3,8(r2)
    3cf8:	e0bfff17 	ldw	r2,-4(fp)
    3cfc:	10804217 	ldw	r2,264(r2)
    3d00:	10bfffc4 	addi	r2,r2,-1
    3d04:	1880062e 	bgeu	r3,r2,3d20 <start_iMCU_row+0x6c>
			coef->MCU_rows_per_iMCU_row = cinfo->cur_comp_info[0]->v_samp_factor;
    3d08:	e0bfff17 	ldw	r2,-4(fp)
    3d0c:	10804417 	ldw	r2,272(r2)
    3d10:	10c00317 	ldw	r3,12(r2)
    3d14:	e0bffe17 	ldw	r2,-8(fp)
    3d18:	10c00515 	stw	r3,20(r2)
    3d1c:	00000506 	br	3d34 <start_iMCU_row+0x80>
		else
			coef->MCU_rows_per_iMCU_row = cinfo->cur_comp_info[0]->last_row_height;
    3d20:	e0bfff17 	ldw	r2,-4(fp)
    3d24:	10804417 	ldw	r2,272(r2)
    3d28:	10c01317 	ldw	r3,76(r2)
    3d2c:	e0bffe17 	ldw	r2,-8(fp)
    3d30:	10c00515 	stw	r3,20(r2)
	}

	coef->mcu_ctr = 0;
    3d34:	e0bffe17 	ldw	r2,-8(fp)
    3d38:	10000315 	stw	zero,12(r2)
	coef->MCU_vert_offset = 0;
    3d3c:	e0bffe17 	ldw	r2,-8(fp)
    3d40:	10000415 	stw	zero,16(r2)
}
    3d44:	e037883a 	mov	sp,fp
    3d48:	df000017 	ldw	fp,0(sp)
    3d4c:	dec00104 	addi	sp,sp,4
    3d50:	f800283a 	ret

00003d54 <start_pass_coef>:
* Initialize for a processing pass.
*/

METHODDEF(void)
	start_pass_coef (j_compress_ptr cinfo, J_BUF_MODE pass_mode)
{
    3d54:	defffa04 	addi	sp,sp,-24
    3d58:	dfc00515 	stw	ra,20(sp)
    3d5c:	df000415 	stw	fp,16(sp)
    3d60:	df000404 	addi	fp,sp,16
    3d64:	e13ffd15 	stw	r4,-12(fp)
    3d68:	e17ffe15 	stw	r5,-8(fp)
	my_coef_ptr coef = (my_coef_ptr) cinfo->coef;
    3d6c:	e0bffd17 	ldw	r2,-12(fp)
    3d70:	10805f17 	ldw	r2,380(r2)
    3d74:	e0bffc15 	stw	r2,-16(fp)

	coef->iMCU_row_num = 0;
    3d78:	e0bffc17 	ldw	r2,-16(fp)
    3d7c:	10000215 	stw	zero,8(r2)
	start_iMCU_row(cinfo);
    3d80:	e13ffd17 	ldw	r4,-12(fp)
    3d84:	0003cb40 	call	3cb4 <start_iMCU_row>

	switch (pass_mode) {
    3d88:	e0bffe17 	ldw	r2,-8(fp)
    3d8c:	e0bfff15 	stw	r2,-4(fp)
    3d90:	e0ffff17 	ldw	r3,-4(fp)
    3d94:	188000a0 	cmpeqi	r2,r3,2
    3d98:	10002b1e 	bne	r2,zero,3e48 <start_pass_coef+0xf4>
    3d9c:	e0ffff17 	ldw	r3,-4(fp)
    3da0:	188000e0 	cmpeqi	r2,r3,3
    3da4:	1000161e 	bne	r2,zero,3e00 <start_pass_coef+0xac>
    3da8:	e0ffff17 	ldw	r3,-4(fp)
    3dac:	1805003a 	cmpeq	r2,r3,zero
    3db0:	1000011e 	bne	r2,zero,3db8 <start_pass_coef+0x64>
    3db4:	00003606 	br	3e90 <start_pass_coef+0x13c>
	case JBUF_PASS_THRU:
		if (coef->whole_image[0] != NULL)
    3db8:	e0bffc17 	ldw	r2,-16(fp)
    3dbc:	10801017 	ldw	r2,64(r2)
    3dc0:	1005003a 	cmpeq	r2,r2,zero
    3dc4:	1000091e 	bne	r2,zero,3dec <start_pass_coef+0x98>
			ERREXIT(cinfo, JERR_BAD_BUFFER_MODE);
    3dc8:	e0bffd17 	ldw	r2,-12(fp)
    3dcc:	10c00017 	ldw	r3,0(r2)
    3dd0:	008000c4 	movi	r2,3
    3dd4:	18800515 	stw	r2,20(r3)
    3dd8:	e0bffd17 	ldw	r2,-12(fp)
    3ddc:	10800017 	ldw	r2,0(r2)
    3de0:	10800017 	ldw	r2,0(r2)
    3de4:	e13ffd17 	ldw	r4,-12(fp)
    3de8:	103ee83a 	callr	r2
		coef->pub.compress_data = compress_data;
    3dec:	e0fffc17 	ldw	r3,-16(fp)
    3df0:	00800034 	movhi	r2,0
    3df4:	108fb204 	addi	r2,r2,16072
    3df8:	18800115 	stw	r2,4(r3)
		break;
    3dfc:	00002d06 	br	3eb4 <start_pass_coef+0x160>
#ifdef FULL_COEF_BUFFER_SUPPORTED
	case JBUF_SAVE_AND_PASS:
		if (coef->whole_image[0] == NULL)
    3e00:	e0bffc17 	ldw	r2,-16(fp)
    3e04:	10801017 	ldw	r2,64(r2)
    3e08:	1004c03a 	cmpne	r2,r2,zero
    3e0c:	1000091e 	bne	r2,zero,3e34 <start_pass_coef+0xe0>
			ERREXIT(cinfo, JERR_BAD_BUFFER_MODE);
    3e10:	e0bffd17 	ldw	r2,-12(fp)
    3e14:	10c00017 	ldw	r3,0(r2)
    3e18:	008000c4 	movi	r2,3
    3e1c:	18800515 	stw	r2,20(r3)
    3e20:	e0bffd17 	ldw	r2,-12(fp)
    3e24:	10800017 	ldw	r2,0(r2)
    3e28:	10800017 	ldw	r2,0(r2)
    3e2c:	e13ffd17 	ldw	r4,-12(fp)
    3e30:	103ee83a 	callr	r2
		coef->pub.compress_data = compress_first_pass;
    3e34:	e0fffc17 	ldw	r3,-16(fp)
    3e38:	00800034 	movhi	r2,0
    3e3c:	1090bf04 	addi	r2,r2,17148
    3e40:	18800115 	stw	r2,4(r3)
		break;
    3e44:	00001b06 	br	3eb4 <start_pass_coef+0x160>
	case JBUF_CRANK_DEST:
		if (coef->whole_image[0] == NULL)
    3e48:	e0bffc17 	ldw	r2,-16(fp)
    3e4c:	10801017 	ldw	r2,64(r2)
    3e50:	1004c03a 	cmpne	r2,r2,zero
    3e54:	1000091e 	bne	r2,zero,3e7c <start_pass_coef+0x128>
			ERREXIT(cinfo, JERR_BAD_BUFFER_MODE);
    3e58:	e0bffd17 	ldw	r2,-12(fp)
    3e5c:	10c00017 	ldw	r3,0(r2)
    3e60:	008000c4 	movi	r2,3
    3e64:	18800515 	stw	r2,20(r3)
    3e68:	e0bffd17 	ldw	r2,-12(fp)
    3e6c:	10800017 	ldw	r2,0(r2)
    3e70:	10800017 	ldw	r2,0(r2)
    3e74:	e13ffd17 	ldw	r4,-12(fp)
    3e78:	103ee83a 	callr	r2
		coef->pub.compress_data = compress_output;
    3e7c:	e0fffc17 	ldw	r3,-16(fp)
    3e80:	00800034 	movhi	r2,0
    3e84:	1091c404 	addi	r2,r2,18192
    3e88:	18800115 	stw	r2,4(r3)
		break;
    3e8c:	00000906 	br	3eb4 <start_pass_coef+0x160>
#endif
	default:
		ERREXIT(cinfo, JERR_BAD_BUFFER_MODE);
    3e90:	e0bffd17 	ldw	r2,-12(fp)
    3e94:	10c00017 	ldw	r3,0(r2)
    3e98:	008000c4 	movi	r2,3
    3e9c:	18800515 	stw	r2,20(r3)
    3ea0:	e0bffd17 	ldw	r2,-12(fp)
    3ea4:	10800017 	ldw	r2,0(r2)
    3ea8:	10800017 	ldw	r2,0(r2)
    3eac:	e13ffd17 	ldw	r4,-12(fp)
    3eb0:	103ee83a 	callr	r2
		break;
	}
}
    3eb4:	e037883a 	mov	sp,fp
    3eb8:	dfc00117 	ldw	ra,4(sp)
    3ebc:	df000017 	ldw	fp,0(sp)
    3ec0:	dec00204 	addi	sp,sp,8
    3ec4:	f800283a 	ret

00003ec8 <compress_data>:
* which we index according to the component's SOF position.
*/

METHODDEF(boolean)
	compress_data (j_compress_ptr cinfo, JSAMPIMAGE input_buf)
{
    3ec8:	deffe904 	addi	sp,sp,-92
    3ecc:	dfc01615 	stw	ra,88(sp)
    3ed0:	df001515 	stw	fp,84(sp)
    3ed4:	df001504 	addi	fp,sp,84
    3ed8:	e13ffc15 	stw	r4,-16(fp)
    3edc:	e17ffd15 	stw	r5,-12(fp)
	my_coef_ptr coef = (my_coef_ptr) cinfo->coef;
    3ee0:	e0bffc17 	ldw	r2,-16(fp)
    3ee4:	10805f17 	ldw	r2,380(r2)
    3ee8:	e0bffb15 	stw	r2,-20(fp)
	JDIMENSION MCU_col_num;	/* index of current MCU within row */
	JDIMENSION last_MCU_col = cinfo->MCUs_per_row - 1;
    3eec:	e0bffc17 	ldw	r2,-16(fp)
    3ef0:	10804817 	ldw	r2,288(r2)
    3ef4:	10bfffc4 	addi	r2,r2,-1
    3ef8:	e0bff915 	stw	r2,-28(fp)
	JDIMENSION last_iMCU_row = cinfo->total_iMCU_rows - 1;
    3efc:	e0bffc17 	ldw	r2,-16(fp)
    3f00:	10804217 	ldw	r2,264(r2)
    3f04:	10bfffc4 	addi	r2,r2,-1
    3f08:	e0bff815 	stw	r2,-32(fp)
	JDIMENSION ypos, xpos;
	jpeg_component_info *compptr;
	forward_DCT_ptr forward_DCT;

	/* Loop to write as much as one whole iMCU row */
	for (yoffset = coef->MCU_vert_offset; yoffset < coef->MCU_rows_per_iMCU_row; yoffset++) {
    3f0c:	e0bffb17 	ldw	r2,-20(fp)
    3f10:	10800417 	ldw	r2,16(r2)
    3f14:	e0bff315 	stw	r2,-52(fp)
    3f18:	0000e506 	br	42b0 <compress_data+0x3e8>
		for (MCU_col_num = coef->mcu_ctr; MCU_col_num <= last_MCU_col; MCU_col_num++) {
    3f1c:	e0bffb17 	ldw	r2,-20(fp)
    3f20:	10800317 	ldw	r2,12(r2)
    3f24:	e0bffa15 	stw	r2,-24(fp)
    3f28:	0000d906 	br	4290 <compress_data+0x3c8>
			* specially.  The data in them does not matter for image reconstruction,
			* so we fill them with values that will encode to the smallest amount of
			* data, viz: all zeroes in the AC entries, DC entries equal to previous
			* block's DC value.  (Thanks to Thomas Kinsman for this idea.)
			*/
			blkn = 0;
    3f2c:	e03ff715 	stw	zero,-36(fp)
			for (ci = 0; ci < cinfo->comps_in_scan; ci++) {
    3f30:	e03ff515 	stw	zero,-44(fp)
    3f34:	0000bd06 	br	422c <compress_data+0x364>
				compptr = cinfo->cur_comp_info[ci];
    3f38:	e0bff517 	ldw	r2,-44(fp)
    3f3c:	e0fffc17 	ldw	r3,-16(fp)
    3f40:	1085883a 	add	r2,r2,r2
    3f44:	1085883a 	add	r2,r2,r2
    3f48:	10c5883a 	add	r2,r2,r3
    3f4c:	10804404 	addi	r2,r2,272
    3f50:	10800017 	ldw	r2,0(r2)
    3f54:	e0bfef15 	stw	r2,-68(fp)
				forward_DCT = cinfo->fdct->forward_DCT[compptr->component_index];
    3f58:	e0bffc17 	ldw	r2,-16(fp)
    3f5c:	10c06317 	ldw	r3,396(r2)
    3f60:	e0bfef17 	ldw	r2,-68(fp)
    3f64:	10800117 	ldw	r2,4(r2)
    3f68:	1085883a 	add	r2,r2,r2
    3f6c:	1085883a 	add	r2,r2,r2
    3f70:	10c5883a 	add	r2,r2,r3
    3f74:	10800104 	addi	r2,r2,4
    3f78:	10800017 	ldw	r2,0(r2)
    3f7c:	e0bfee15 	stw	r2,-72(fp)
				blockcnt = (MCU_col_num < last_MCU_col) ? compptr->MCU_width : compptr->last_col_width;
    3f80:	e0fffa17 	ldw	r3,-24(fp)
    3f84:	e0bff917 	ldw	r2,-28(fp)
    3f88:	1880042e 	bgeu	r3,r2,3f9c <compress_data+0xd4>
    3f8c:	e0bfef17 	ldw	r2,-68(fp)
    3f90:	10800e17 	ldw	r2,56(r2)
    3f94:	e0bfff15 	stw	r2,-4(fp)
    3f98:	00000306 	br	3fa8 <compress_data+0xe0>
    3f9c:	e0bfef17 	ldw	r2,-68(fp)
    3fa0:	10801217 	ldw	r2,72(r2)
    3fa4:	e0bfff15 	stw	r2,-4(fp)
    3fa8:	e0bfff17 	ldw	r2,-4(fp)
    3fac:	e0bff215 	stw	r2,-56(fp)
				xpos = MCU_col_num * compptr->MCU_sample_width;
    3fb0:	e0bfef17 	ldw	r2,-68(fp)
    3fb4:	10801117 	ldw	r2,68(r2)
    3fb8:	1007883a 	mov	r3,r2
    3fbc:	e0bffa17 	ldw	r2,-24(fp)
    3fc0:	1885383a 	mul	r2,r3,r2
    3fc4:	e0bff015 	stw	r2,-64(fp)
				ypos = yoffset * compptr->DCT_v_scaled_size;
    3fc8:	e0bfef17 	ldw	r2,-68(fp)
    3fcc:	10c00a17 	ldw	r3,40(r2)
    3fd0:	e0bff317 	ldw	r2,-52(fp)
    3fd4:	1885383a 	mul	r2,r3,r2
    3fd8:	e0bff115 	stw	r2,-60(fp)
				/* ypos == (yoffset+yindex) * DCTSIZE */
				for (yindex = 0; yindex < compptr->MCU_height; yindex++) {
    3fdc:	e03ff415 	stw	zero,-48(fp)
    3fe0:	00008b06 	br	4210 <compress_data+0x348>
					if (coef->iMCU_row_num < last_iMCU_row || yoffset+yindex < compptr->last_row_height) {
    3fe4:	e0bffb17 	ldw	r2,-20(fp)
    3fe8:	10c00217 	ldw	r3,8(r2)
    3fec:	e0bff817 	ldw	r2,-32(fp)
    3ff0:	18800636 	bltu	r3,r2,400c <compress_data+0x144>
    3ff4:	e0fff317 	ldw	r3,-52(fp)
    3ff8:	e0bff417 	ldw	r2,-48(fp)
    3ffc:	1887883a 	add	r3,r3,r2
    4000:	e0bfef17 	ldw	r2,-68(fp)
    4004:	10801317 	ldw	r2,76(r2)
